Certificate:
    Data:
        Version: 3 (0x2)
        Serial Number: 1 (0x1)
        Signature Algorithm: sha256WithRSAEncryption
        Issuer: C=CN, ST=SH, O=ECNU, CN=CA
        Validity
            Not Before: Apr 14 12:19:53 2021 GMT
            Not After : Apr 14 12:19:53 2022 GMT
        Subject: C=CN, ST=SH, O=ECNU, CN=DASE
        Subject Public Key Info:
            Public Key Algorithm: rsaEncryption
                RSA Public-Key: (2048 bit)
                Modulus:
                    00:a3:c7:38:0b:84:68:3e:10:0c:6d:2e:4c:73:5d:
                    3e:e2:cf:8d:60:98:7d:a6:9a:84:cd:c4:c9:37:a1:
                    01:c3:d1:45:3f:36:ab:4e:b3:c9:27:43:ad:e1:52:
                    60:98:46:ff:36:09:76:9e:d4:01:e4:ce:9e:ff:09:
                    4e:5c:cb:1d:13:ec:8d:5b:88:0e:10:d2:6d:dd:da:
                    50:4f:90:8b:0c:ef:53:4e:70:8f:2f:a8:64:9f:3f:
                    c7:1c:12:9b:db:bb:3c:71:3e:28:6a:24:ea:04:56:
                    24:2c:a1:ec:b2:7c:6a:ce:b9:42:a5:26:ea:79:5e:
                    98:9f:05:30:7c:16:23:6f:ec:f1:9e:f8:c7:76:3f:
                    b8:ec:7a:96:fc:e2:df:db:3e:5a:63:09:69:8f:10:
                    51:6a:59:49:21:73:61:47:8e:b6:04:b9:ea:cf:1c:
                    c9:79:c2:85:65:cb:9d:6a:51:de:a9:70:46:07:0c:
                    26:52:b0:b0:56:68:50:a0:a4:f8:e3:29:e4:dd:99:
                    1b:47:d0:f8:62:d1:ba:84:c9:51:46:a3:59:5a:7d:
                    bf:46:5a:32:51:01:78:cc:3e:14:9b:e6:29:a6:75:
                    d1:17:78:2f:21:86:f6:c2:bd:2a:4d:4e:9f:c9:61:
                    b3:92:ba:0f:0a:24:d2:93:5e:ce:f8:b7:4f:fc:a2:
                    68:d9
                Exponent: 65537 (0x10001)
        X509v3 extensions:
            X509v3 Basic Constraints: 
                CA:FALSE
            Netscape Comment: 
                OpenSSL Generated Certificate
            X509v3 Subject Key Identifier: 
                7B:5E:B6:CF:EE:3C:A7:7A:6F:93:8F:C3:04:63:9D:BA:5F:B9:C4:63
            X509v3 Authority Key Identifier: 
                keyid:25:A4:F1:E3:10:29:BC:97:0F:78:01:8F:27:D8:78:5D:DE:F9:35:1F

    Signature Algorithm: sha256WithRSAEncryption
         8b:2b:ab:af:e7:50:f8:61:ac:d5:be:0f:ca:5f:57:da:e4:a5:
         70:40:a5:ec:03:e1:25:16:11:86:80:5f:21:9d:9d:a7:d6:4d:
         b8:40:0d:07:3e:09:e4:1a:77:85:1e:87:66:1f:45:11:e8:5e:
         9f:2c:90:68:0d:4d:73:8c:b1:73:c5:d9:ee:7b:1f:b8:c2:b9:
         5b:84:0c:fa:51:57:06:3b:c5:50:81:c6:89:0d:82:4e:0e:64:
         85:9c:89:59:30:05:43:29:69:cc:00:e5:5e:77:db:1d:27:c7:
         69:c3:b3:c9:e7:02:d3:b3:89:f5:a5:03:13:70:97:e8:a7:e0:
         46:ee:cf:0d:d2:fa:d5:52:70:84:a1:52:59:22:80:f0:f9:ee:
         8a:ee:36:54:b6:31:e4:fd:92:cc:cb:07:78:54:0d:4b:8e:95:
         08:1d:76:1c:e6:44:4c:f7:d8:47:c4:b6:10:a9:57:46:c3:7c:
         6a:8f:7e:ad:12:08:9b:dd:5a:6c:1e:1b:ae:03:47:fb:b3:39:
         58:51:33:05:70:6d:b0:6a:3d:05:1d:39:d7:01:cb:69:c4:95:
         53:fd:d3:61:91:e1:01:b1:32:9c:b3:cc:02:95:00:33:f2:8c:
         ad:4f:da:f9:13:73:e8:88:c5:6c:22:8a:90:6b:4a:ea:1a:04:
         0d:26:ce:b0
-----BEGIN CERTIFICATE-----
MIIDZDCCAkygAwIBAgIBATANBgkqhkiG9w0BAQsFADA2MQswCQYDVQQGEwJDTjEL
MAkGA1UECAwCU0gxDTALBgNVBAoMBEVDTlUxCzAJBgNVBAMMAkNBMB4XDTIxMDQx
NDEyMTk1M1oXDTIyMDQxNDEyMTk1M1owODELMAkGA1UEBhMCQ04xCzAJBgNVBAgM
AlNIMQ0wCwYDVQQKDARFQ05VMQ0wCwYDVQQDDAREQVNFMIIBIjANBgkqhkiG9w0B
AQEFAAOCAQ8AMIIBCgKCAQEAo8c4C4RoPhAMbS5Mc10+4s+NYJh9ppqEzcTJN6EB
w9FFPzarTrPJJ0Ot4VJgmEb/Ngl2ntQB5M6e/wlOXMsdE+yNW4gOENJt3dpQT5CL
DO9TTnCPL6hknz/HHBKb27s8cT4oaiTqBFYkLKHssnxqzrlCpSbqeV6YnwUwfBYj
b+zxnvjHdj+47HqW/OLf2z5aYwlpjxBRallJIXNhR462BLnqzxzJecKFZcudalHe
qXBGBwwmUrCwVmhQoKT44ynk3ZkbR9D4YtG6hMlRRqNZWn2/RloyUQF4zD4Um+Yp
pnXRF3gvIYb2wr0qTU6fyWGzkroPCiTSk17O+LdP/KJo2QIDAQABo3sweTAJBgNV
HRMEAjAAMCwGCWCGSAGG+EIBDQQfFh1PcGVuU1NMIEdlbmVyYXRlZCBDZXJ0aWZp
Y2F0ZTAdBgNVHQ4EFgQUe162z+48p3pvk4/DBGOdul+5xGMwHwYDVR0jBBgwFoAU
JaTx4xApvJcPeAGPJ9h4Xd75NR8wDQYJKoZIhvcNAQELBQADggEBAIsrq6/nUPhh
rNW+D8pfV9rkpXBApewD4SUWEYaAXyGdnafWTbhADQc+CeQad4Ueh2YfRRHoXp8s
kGgNTXOMsXPF2e57H7jCuVuEDPpRVwY7xVCBxokNgk4OZIWciVkwBUMpacwA5V53
2x0nx2nDs8nnAtOzifWlAxNwl+in4Ebuzw3S+tVScIShUlkigPD57oruNlS2MeT9
kszLB3hUDUuOlQgddhzmREz32EfEthCpV0bDfGqPfq0SCJvdWmweG64DR/uzOVhR
MwVwbbBqPQUdOdcBy2nElVP902GR4QGxMpyzzAKVADPyjK1P2vkTc+iIxWwiipBr
SuoaBA0mzrA=
-----END CERTIFICATE-----
