Certificate:
    Data:
        Version: 3 (0x2)
        Serial Number: 2 (0x2)
        Signature Algorithm: sha256WithRSAEncryption
        Issuer: C=CN, ST=SH, O=ECNU, CN=CA
        Validity
            Not Before: Apr 14 12:31:19 2021 GMT
            Not After : Apr 14 12:31:19 2022 GMT
        Subject: C=CN, ST=SH, O=ECNU, CN=DASE2
        Subject Public Key Info:
            Public Key Algorithm: rsaEncryption
                RSA Public-Key: (2048 bit)
                Modulus:
                    00:b2:be:64:b0:c9:42:5f:ed:82:a4:b1:6c:42:f3:
                    51:36:23:7c:a4:62:a6:c6:95:9d:ac:c3:78:19:67:
                    d7:04:20:df:be:a8:8d:50:48:d3:67:d9:44:c4:14:
                    08:eb:ef:fd:59:4d:f8:a3:76:99:51:e3:49:2f:6a:
                    72:89:e2:86:4b:68:2c:b0:76:dd:7b:06:eb:5b:dc:
                    04:5a:cf:68:d8:a7:60:14:57:e5:66:6e:05:b7:ed:
                    e1:ad:cd:6a:97:fe:35:2b:02:90:1c:2c:3d:ac:28:
                    56:9e:9e:43:83:93:b0:7e:bc:33:b8:99:a3:da:9f:
                    1d:bd:c4:76:3f:b1:df:55:7e:69:b2:84:53:eb:e8:
                    3a:33:56:f1:28:92:a8:0d:60:94:56:fc:92:d2:d1:
                    a5:f0:57:57:06:19:95:78:4e:45:b1:34:04:81:03:
                    36:db:5e:ac:86:b9:31:b0:81:76:fe:a4:71:4b:c0:
                    9d:de:29:1c:e1:06:b2:42:7a:f2:71:9d:7f:16:48:
                    8a:d6:50:e0:f3:85:2c:35:8a:d2:d4:d9:7b:9f:10:
                    21:58:50:4e:88:b8:63:11:4a:3b:60:d3:ca:d0:94:
                    e2:31:85:a2:6e:9d:0e:69:eb:bc:fa:63:71:a6:7f:
                    9b:ae:5f:56:b4:2f:23:ad:0a:d8:ce:d1:bd:e0:e9:
                    60:01
                Exponent: 65537 (0x10001)
        X509v3 extensions:
            X509v3 Basic Constraints: 
                CA:FALSE
            Netscape Comment: 
                OpenSSL Generated Certificate
            X509v3 Subject Key Identifier: 
                60:41:EC:6A:CC:C5:0C:89:A9:E4:B8:30:FA:14:84:89:0D:C5:0B:68
            X509v3 Authority Key Identifier: 
                keyid:BA:C7:F8:04:31:46:1D:27:9F:A9:0C:3F:00:3E:9D:90:87:A5:F3:5E

    Signature Algorithm: sha256WithRSAEncryption
         24:24:19:a4:a4:20:59:e2:28:06:b1:39:f8:65:82:c0:1f:c0:
         77:05:7a:c2:80:9d:e8:88:2c:19:24:70:dd:27:71:e2:88:82:
         c8:64:a9:1d:01:22:6f:4b:85:8b:4b:5e:db:7e:a1:8a:f5:f2:
         f4:ab:ab:81:3b:c6:e8:7c:81:77:fa:8a:49:85:d4:72:c4:70:
         e2:a9:d8:63:e6:34:83:d2:ea:12:86:40:80:60:54:14:d2:2a:
         bc:1e:32:45:cd:a1:d7:ab:32:55:30:99:26:1a:0b:04:2a:da:
         45:be:5b:05:58:15:89:3a:c7:99:43:1a:6f:78:93:79:2e:03:
         8a:20:1d:af:e6:d5:0b:f6:ab:1e:aa:fa:27:4f:bd:c8:05:82:
         e7:47:38:9f:5c:9e:a0:45:b8:63:21:2f:19:a0:cf:59:51:69:
         4b:a6:b0:4e:a9:78:07:e5:a0:c8:62:ae:94:ea:17:d5:49:ec:
         85:ac:76:60:d4:2a:75:ea:aa:87:40:87:17:7e:e6:67:3e:4e:
         ca:15:dd:54:88:c5:35:f3:bc:62:5f:7d:d4:c2:8a:dd:87:85:
         28:c7:10:ac:b6:d9:16:bd:88:a4:76:e4:ee:ea:98:1f:08:c5:
         74:58:a8:a9:14:6d:ba:62:a0:d2:29:2d:bd:f0:46:a5:85:f0:
         6d:58:cb:33
-----BEGIN CERTIFICATE-----
MIIDZTCCAk2gAwIBAgIBAjANBgkqhkiG9w0BAQsFADA2MQswCQYDVQQGEwJDTjEL
MAkGA1UECAwCU0gxDTALBgNVBAoMBEVDTlUxCzAJBgNVBAMMAkNBMB4XDTIxMDQx
NDEyMzExOVoXDTIyMDQxNDEyMzExOVowOTELMAkGA1UEBhMCQ04xCzAJBgNVBAgM
AlNIMQ0wCwYDVQQKDARFQ05VMQ4wDAYDVQQDDAVEQVNFMjCCASIwDQYJKoZIhvcN
AQEBBQADggEPADCCAQoCggEBALK+ZLDJQl/tgqSxbELzUTYjfKRipsaVnazDeBln
1wQg376ojVBI02fZRMQUCOvv/VlN+KN2mVHjSS9qconihktoLLB23XsG61vcBFrP
aNinYBRX5WZuBbft4a3Napf+NSsCkBwsPawoVp6eQ4OTsH68M7iZo9qfHb3Edj+x
31V+abKEU+voOjNW8SiSqA1glFb8ktLRpfBXVwYZlXhORbE0BIEDNtterIa5MbCB
dv6kcUvAnd4pHOEGskJ68nGdfxZIitZQ4POFLDWK0tTZe58QIVhQToi4YxFKO2DT
ytCU4jGFom6dDmnrvPpjcaZ/m65fVrQvI60K2M7RveDpYAECAwEAAaN7MHkwCQYD
VR0TBAIwADAsBglghkgBhvhCAQ0EHxYdT3BlblNTTCBHZW5lcmF0ZWQgQ2VydGlm
aWNhdGUwHQYDVR0OBBYEFGBB7GrMxQyJqeS4MPoUhIkNxQtoMB8GA1UdIwQYMBaA
FLrH+AQxRh0nn6kMPwA+nZCHpfNeMA0GCSqGSIb3DQEBCwUAA4IBAQAkJBmkpCBZ
4igGsTn4ZYLAH8B3BXrCgJ3oiCwZJHDdJ3HiiILIZKkdASJvS4WLS17bfqGK9fL0
q6uBO8bofIF3+opJhdRyxHDiqdhj5jSD0uoShkCAYFQU0iq8HjJFzaHXqzJVMJkm
GgsEKtpFvlsFWBWJOseZQxpveJN5LgOKIB2v5tUL9qseqvonT73IBYLnRzifXJ6g
RbhjIS8ZoM9ZUWlLprBOqXgH5aDIYq6U6hfVSeyFrHZg1Cp16qqHQIcXfuZnPk7K
Fd1UiMU187xiX33Uwordh4UoxxCsttkWvYikduTu6pgfCMV0WKipFG26YqDSKS29
8EalhfBtWMsz
-----END CERTIFICATE-----
