Certificate:
    Data:
        Version: 3 (0x2)
        Serial Number: 3 (0x3)
        Signature Algorithm: sha256WithRSAEncryption
        Issuer: C=CN, ST=SH, O=ECNU, CN=CA
        Validity
            Not Before: Apr 14 12:42:58 2021 GMT
            Not After : Apr 14 12:42:58 2022 GMT
        Subject: C=CN, ST=SH, O=ECNU, CN=DASE3
        Subject Public Key Info:
            Public Key Algorithm: rsaEncryption
                RSA Public-Key: (2048 bit)
                Modulus:
                    00:e5:0a:6b:ca:06:3b:18:19:43:58:66:02:c6:23:
                    99:af:9f:06:64:0e:62:22:0e:ed:21:e5:27:0a:57:
                    62:20:48:37:d2:12:9f:ac:8f:83:91:72:5f:70:06:
                    a4:77:f3:58:4f:29:82:26:0d:dc:c7:95:40:68:53:
                    54:4b:c8:09:2f:ac:9f:4b:ac:f8:23:9e:9a:d1:99:
                    60:0d:fd:12:43:56:ec:fd:e3:7e:a8:9e:24:e3:b3:
                    c4:10:2c:6b:0c:fc:a0:81:ea:a3:22:e4:eb:fb:82:
                    60:5f:02:2c:47:81:70:e2:b6:37:a7:98:70:13:a8:
                    75:98:69:34:54:90:9d:58:a3:f6:ed:16:c6:92:ce:
                    17:c4:56:08:1a:c5:f8:40:b9:90:84:cb:2a:02:40:
                    f7:9d:e1:16:ce:c8:27:46:42:e5:1a:d9:43:f1:16:
                    40:5f:6d:1a:c7:ac:58:d4:3f:22:dc:75:64:30:fe:
                    4c:75:aa:80:a0:34:1a:6b:55:70:25:70:a3:79:d6:
                    0d:38:96:72:39:c1:d4:fb:7e:a3:7d:f2:55:ee:15:
                    77:33:b7:ac:76:1a:61:34:13:a7:8e:9b:28:5b:e2:
                    4a:c7:9e:7f:78:e8:49:4d:c7:89:5b:f7:09:8c:f1:
                    ec:7a:a2:20:f0:e0:91:61:02:a8:1c:b7:08:ae:f6:
                    d2:e1
                Exponent: 65537 (0x10001)
        X509v3 extensions:
            X509v3 Basic Constraints: 
                CA:FALSE
            Netscape Comment: 
                OpenSSL Generated Certificate
            X509v3 Subject Key Identifier: 
                0F:84:33:C6:F1:AD:45:08:45:5E:C2:E9:59:43:E1:65:4B:D8:F4:E0
            X509v3 Authority Key Identifier: 
                keyid:E4:1D:58:6A:2A:C2:64:FC:37:55:2A:DF:AE:50:63:29:97:15:BD:22

    Signature Algorithm: sha256WithRSAEncryption
         42:99:ab:47:ed:e1:4a:1b:cd:0d:72:3e:97:a9:b4:94:ad:cf:
         35:44:af:a9:6e:97:fb:32:11:0a:b2:aa:6b:d8:4b:30:fd:0b:
         48:41:c0:f7:7d:47:57:67:f4:2c:fd:97:45:be:7e:ef:80:60:
         2d:8d:99:75:ef:e1:42:d6:85:ee:42:fc:90:ec:27:11:20:17:
         99:08:82:c6:9e:4f:3e:85:ec:81:16:06:4b:ee:9c:1c:85:40:
         26:3e:f4:67:34:40:ca:89:08:78:d7:c7:0e:9c:1c:6e:98:e7:
         24:35:19:1c:54:89:69:b3:8d:f2:c7:b8:a7:0c:b4:bc:83:74:
         93:5a:b6:19:e2:94:86:12:e7:9a:c9:c6:7c:ed:62:12:68:77:
         5a:d2:c7:8a:ee:f6:eb:08:da:f6:46:32:61:e2:3e:89:f6:77:
         80:74:8a:c9:0a:38:ba:10:01:2b:28:e5:6c:36:bc:77:6f:f6:
         eb:38:2b:3d:67:40:c9:d3:d9:01:0b:fc:24:2a:73:45:fc:b0:
         cf:12:28:59:c5:23:ce:89:c3:2e:e9:9e:c8:d1:a4:1d:f4:7f:
         48:b9:9f:74:fd:c0:d4:e0:37:19:9f:da:ba:1b:b3:16:c4:81:
         77:f1:1b:61:ba:68:15:68:97:03:2a:35:3a:17:4e:1e:6c:ba:
         08:58:79:cc
-----BEGIN CERTIFICATE-----
MIIDZTCCAk2gAwIBAgIBAzANBgkqhkiG9w0BAQsFADA2MQswCQYDVQQGEwJDTjEL
MAkGA1UECAwCU0gxDTALBgNVBAoMBEVDTlUxCzAJBgNVBAMMAkNBMB4XDTIxMDQx
NDEyNDI1OFoXDTIyMDQxNDEyNDI1OFowOTELMAkGA1UEBhMCQ04xCzAJBgNVBAgM
AlNIMQ0wCwYDVQQKDARFQ05VMQ4wDAYDVQQDDAVEQVNFMzCCASIwDQYJKoZIhvcN
AQEBBQADggEPADCCAQoCggEBAOUKa8oGOxgZQ1hmAsYjma+fBmQOYiIO7SHlJwpX
YiBIN9ISn6yPg5FyX3AGpHfzWE8pgiYN3MeVQGhTVEvICS+sn0us+COemtGZYA39
EkNW7P3jfqieJOOzxBAsawz8oIHqoyLk6/uCYF8CLEeBcOK2N6eYcBOodZhpNFSQ
nVij9u0WxpLOF8RWCBrF+EC5kITLKgJA953hFs7IJ0ZC5RrZQ/EWQF9tGsesWNQ/
Itx1ZDD+THWqgKA0GmtVcCVwo3nWDTiWcjnB1Pt+o33yVe4VdzO3rHYaYTQTp46b
KFviSseef3joSU3HiVv3CYzx7HqiIPDgkWECqBy3CK720uECAwEAAaN7MHkwCQYD
VR0TBAIwADAsBglghkgBhvhCAQ0EHxYdT3BlblNTTCBHZW5lcmF0ZWQgQ2VydGlm
aWNhdGUwHQYDVR0OBBYEFA+EM8bxrUUIRV7C6VlD4WVL2PTgMB8GA1UdIwQYMBaA
FOQdWGoqwmT8N1Uq365QYymXFb0iMA0GCSqGSIb3DQEBCwUAA4IBAQBCmatH7eFK
G80Ncj6XqbSUrc81RK+pbpf7MhEKsqpr2Esw/QtIQcD3fUdXZ/Qs/ZdFvn7vgGAt
jZl17+FC1oXuQvyQ7CcRIBeZCILGnk8+heyBFgZL7pwchUAmPvRnNEDKiQh418cO
nBxumOckNRkcVIlps43yx7inDLS8g3STWrYZ4pSGEueaycZ87WISaHda0seK7vbr
CNr2RjJh4j6J9neAdIrJCji6EAErKOVsNrx3b/brOCs9Z0DJ09kBC/wkKnNF/LDP
EihZxSPOicMu6Z7I0aQd9H9IuZ90/cDU4DcZn9q6G7MWxIF38RthumgVaJcDKjU6
F04ebLoIWHnM
-----END CERTIFICATE-----
