Certificate:
    Data:
        Version: 3 (0x2)
        Serial Number: 4 (0x4)
        Signature Algorithm: sha256WithRSAEncryption
        Issuer: C=CN, ST=SH, O=ECNU, CN=CA
        Validity
            Not Before: Apr 14 12:45:55 2021 GMT
            Not After : Apr 14 12:45:55 2022 GMT
        Subject: C=CN, ST=SH, O=ECNU, CN=DASE4
        Subject Public Key Info:
            Public Key Algorithm: rsaEncryption
                RSA Public-Key: (2048 bit)
                Modulus:
                    00:c2:40:66:2b:c4:19:36:cf:08:0e:4c:b0:6d:7a:
                    83:9d:a9:da:1b:37:72:a3:01:f2:66:08:6e:96:61:
                    71:54:4f:79:b1:bf:8d:e5:0d:62:1b:ae:1f:2c:63:
                    d3:44:2d:ab:f0:1f:cc:e5:72:be:06:25:28:e9:ce:
                    a6:e1:17:1d:30:e1:3f:af:ee:93:ad:73:cd:c3:c1:
                    57:44:2a:07:ad:1b:dc:56:ed:79:3e:8a:20:e5:84:
                    3d:12:c6:8a:51:3d:5e:2c:8b:36:04:5a:0f:aa:6c:
                    19:ec:d6:68:ba:84:b7:48:c4:3f:f5:39:11:a4:a9:
                    33:07:cb:b5:ad:f2:f9:8f:ec:05:5d:9e:e7:c6:69:
                    92:17:5a:2b:2e:17:8d:ed:19:c4:37:54:0e:66:19:
                    85:c0:90:93:f1:81:b8:dc:a8:49:f7:dc:c1:25:fb:
                    6d:8d:06:7f:9a:31:4a:f7:20:c5:6a:8e:52:fc:f2:
                    d9:76:9b:d7:ac:9c:1e:3b:4c:24:33:e5:c4:a0:29:
                    5b:04:d0:bd:bb:9e:57:63:8f:ce:49:81:78:b3:3e:
                    7d:d4:77:5c:1b:01:a6:37:a9:60:b4:4f:02:38:b0:
                    ed:86:12:78:d1:07:21:99:e2:ab:4a:8f:b5:20:7e:
                    c1:2a:e1:99:a6:db:bd:96:25:d8:24:d3:ab:2e:63:
                    fd:11
                Exponent: 65537 (0x10001)
        X509v3 extensions:
            X509v3 Basic Constraints: 
                CA:FALSE
            Netscape Comment: 
                OpenSSL Generated Certificate
            X509v3 Subject Key Identifier: 
                33:23:2A:EF:7F:86:1C:15:35:98:5D:B7:7F:1F:03:28:78:BE:F5:48
            X509v3 Authority Key Identifier: 
                keyid:BB:EF:41:3D:F3:DE:8D:7C:72:18:1B:F5:0B:4F:C0:3C:DC:9B:48:40

    Signature Algorithm: sha256WithRSAEncryption
         56:b6:a6:e1:3a:44:14:70:86:06:c6:d8:34:19:20:66:d2:fa:
         81:d1:2c:d9:e7:4d:de:ed:1b:ba:10:9f:80:12:6c:90:39:9e:
         70:a6:b2:64:52:ba:a4:fd:cb:63:81:99:c2:32:3e:b7:51:b5:
         c1:6a:6a:7d:91:2c:64:1c:07:c2:3e:5b:94:6c:f6:fd:e5:d9:
         a3:7e:6e:fc:ad:b1:c6:15:93:cc:19:58:59:bc:d0:8f:95:91:
         d4:75:f7:12:a0:f7:70:90:a7:f8:91:04:ac:cf:34:38:27:2e:
         82:af:bf:50:bf:de:6c:6e:b0:3b:15:6c:36:d8:f9:cb:53:2d:
         96:64:7f:a3:21:f5:95:c0:a2:a7:28:0f:6b:b9:ea:30:d3:9f:
         56:14:be:75:c3:b7:89:03:82:21:8f:7f:ae:46:47:05:09:4e:
         d8:7c:c4:9c:b2:1f:1d:73:1f:08:46:2d:62:a3:1f:a7:45:69:
         2e:bf:95:a5:24:b1:55:b2:4d:ff:9c:1e:15:99:69:9f:8d:86:
         7c:95:23:6c:42:f4:3f:36:68:82:89:55:cc:98:77:42:d0:09:
         9c:4e:3a:15:bc:62:41:68:26:84:60:eb:d5:14:bf:36:a8:5f:
         f4:34:55:92:6c:ba:cb:6e:8d:60:ef:18:06:fa:17:45:5c:a3:
         cd:69:00:ae
-----BEGIN CERTIFICATE-----
MIIDZTCCAk2gAwIBAgIBBDANBgkqhkiG9w0BAQsFADA2MQswCQYDVQQGEwJDTjEL
MAkGA1UECAwCU0gxDTALBgNVBAoMBEVDTlUxCzAJBgNVBAMMAkNBMB4XDTIxMDQx
NDEyNDU1NVoXDTIyMDQxNDEyNDU1NVowOTELMAkGA1UEBhMCQ04xCzAJBgNVBAgM
AlNIMQ0wCwYDVQQKDARFQ05VMQ4wDAYDVQQDDAVEQVNFNDCCASIwDQYJKoZIhvcN
AQEBBQADggEPADCCAQoCggEBAMJAZivEGTbPCA5MsG16g52p2hs3cqMB8mYIbpZh
cVRPebG/jeUNYhuuHyxj00Qtq/AfzOVyvgYlKOnOpuEXHTDhP6/uk61zzcPBV0Qq
B60b3FbteT6KIOWEPRLGilE9XiyLNgRaD6psGezWaLqEt0jEP/U5EaSpMwfLta3y
+Y/sBV2e58ZpkhdaKy4Xje0ZxDdUDmYZhcCQk/GBuNyoSffcwSX7bY0Gf5oxSvcg
xWqOUvzy2Xab16ycHjtMJDPlxKApWwTQvbueV2OPzkmBeLM+fdR3XBsBpjepYLRP
Ajiw7YYSeNEHIZniq0qPtSB+wSrhmabbvZYl2CTTqy5j/RECAwEAAaN7MHkwCQYD
VR0TBAIwADAsBglghkgBhvhCAQ0EHxYdT3BlblNTTCBHZW5lcmF0ZWQgQ2VydGlm
aWNhdGUwHQYDVR0OBBYEFDMjKu9/hhwVNZhdt38fAyh4vvVIMB8GA1UdIwQYMBaA
FLvvQT3z3o18chgb9QtPwDzcm0hAMA0GCSqGSIb3DQEBCwUAA4IBAQBWtqbhOkQU
cIYGxtg0GSBm0vqB0SzZ503e7Ru6EJ+AEmyQOZ5wprJkUrqk/ctjgZnCMj63UbXB
amp9kSxkHAfCPluUbPb95dmjfm78rbHGFZPMGVhZvNCPlZHUdfcSoPdwkKf4kQSs
zzQ4Jy6Cr79Qv95sbrA7FWw22PnLUy2WZH+jIfWVwKKnKA9rueow059WFL51w7eJ
A4Ihj3+uRkcFCU7YfMScsh8dcx8IRi1iox+nRWkuv5WlJLFVsk3/nB4VmWmfjYZ8
lSNsQvQ/NmiCiVXMmHdC0AmcTjoVvGJBaCaEYOvVFL82qF/0NFWSbLrLbo1g7xgG
+hdFXKPNaQCu
-----END CERTIFICATE-----
