Certificate:
    Data:
        Version: 3 (0x2)
        Serial Number: 5 (0x5)
        Signature Algorithm: sha256WithRSAEncryption
        Issuer: C=CN, ST=SH, O=ECNU, CN=CA
        Validity
            Not Before: Apr 19 01:40:29 2021 GMT
            Not After : Apr 19 01:40:29 2022 GMT
        Subject: C=CN, ST=SH, O=ECNU, CN=DASE5
        Subject Public Key Info:
            Public Key Algorithm: rsaEncryption
                RSA Public-Key: (2048 bit)
                Modulus:
                    00:b7:21:e1:ab:6b:98:5c:c9:8a:c2:1f:c9:47:07:
                    95:d8:e0:c9:24:e9:a9:24:8e:dd:0f:e7:34:69:3d:
                    80:5c:81:cc:7a:cc:63:fd:14:a1:00:ad:d9:b5:01:
                    1f:26:c0:2e:01:21:3d:2f:cc:44:fd:1f:25:86:49:
                    70:06:f3:f0:8a:2c:f2:90:01:a7:19:41:dd:ee:99:
                    d9:d9:43:03:b8:43:3f:8a:6a:7b:f6:13:00:02:7b:
                    fe:70:36:bd:fd:29:28:b2:dd:45:8f:72:ad:84:f6:
                    f3:21:e3:f3:c7:92:e7:d3:47:3a:f2:b0:24:e5:8e:
                    17:de:f9:f3:b4:d9:fa:b5:db:b5:ee:07:91:db:41:
                    03:35:bb:93:3d:51:f3:19:01:83:44:98:c4:9e:8e:
                    3d:57:83:b0:aa:90:85:c1:f9:ac:5c:30:69:f2:42:
                    6f:11:5f:9f:17:9e:63:9c:c5:56:67:9c:92:f3:a8:
                    ca:45:08:45:5d:b2:a7:1e:a6:5f:ea:2e:4f:6f:a4:
                    5c:41:da:9d:1a:9d:0b:38:bd:29:8d:60:d4:36:bf:
                    3d:7a:73:26:28:26:e8:1e:02:59:c1:75:68:64:68:
                    f4:48:e1:bf:22:6e:f8:64:15:a0:1d:f5:fb:48:6b:
                    46:d5:df:70:e2:fc:e1:03:6e:e3:04:41:bb:bc:9b:
                    e6:bd
                Exponent: 65537 (0x10001)
        X509v3 extensions:
            X509v3 Basic Constraints: 
                CA:FALSE
            Netscape Comment: 
                OpenSSL Generated Certificate
            X509v3 Subject Key Identifier: 
                9B:10:CB:DD:81:D4:82:2F:0C:71:E2:1E:2F:D3:F3:7B:27:79:33:34
            X509v3 Authority Key Identifier: 
                keyid:31:48:48:E2:4F:1F:F9:4D:AF:B0:E4:47:B4:57:86:85:77:81:EF:94

    Signature Algorithm: sha256WithRSAEncryption
         d6:23:b7:f7:e6:39:d5:36:73:39:dc:82:d8:19:2d:ec:87:6f:
         f8:9d:18:29:e5:b1:07:01:b4:09:6d:26:41:d0:f2:02:60:f0:
         14:b6:17:ee:d0:f0:81:63:25:20:dd:79:55:3f:12:1f:b9:1b:
         b1:33:40:5e:cc:76:2a:c2:0a:f0:c9:64:f0:a6:74:b0:20:10:
         f5:0f:96:60:04:52:80:56:60:88:d3:4c:63:1f:4a:67:f8:93:
         a9:cd:3d:4b:c3:09:b4:99:87:4c:59:da:57:69:83:67:f0:54:
         cf:7d:a7:a7:81:fe:b7:49:33:d0:34:7c:52:2f:a1:97:bd:7e:
         ce:e4:fa:6d:7c:af:71:00:06:c1:ab:fb:dc:38:d0:89:43:aa:
         60:fc:95:29:8e:96:16:31:05:ed:06:e8:5b:83:83:80:28:88:
         d8:f3:72:c5:2c:7c:50:b6:f6:16:2b:96:cf:90:f6:aa:56:a8:
         f0:d8:cc:46:91:a6:25:61:53:c9:3b:72:e9:45:de:42:31:71:
         1c:2a:6d:d9:92:6c:cc:10:aa:a6:d2:5a:de:62:0f:0c:ee:b7:
         84:30:6d:86:a1:6b:3d:21:29:52:99:21:28:a9:02:ee:42:97:
         e4:28:8a:2d:d3:e6:8b:ff:16:f1:1b:de:26:15:9f:d5:af:6d:
         be:7a:e6:aa
-----BEGIN CERTIFICATE-----
MIIDZTCCAk2gAwIBAgIBBTANBgkqhkiG9w0BAQsFADA2MQswCQYDVQQGEwJDTjEL
MAkGA1UECAwCU0gxDTALBgNVBAoMBEVDTlUxCzAJBgNVBAMMAkNBMB4XDTIxMDQx
OTAxNDAyOVoXDTIyMDQxOTAxNDAyOVowOTELMAkGA1UEBhMCQ04xCzAJBgNVBAgM
AlNIMQ0wCwYDVQQKDARFQ05VMQ4wDAYDVQQDDAVEQVNFNTCCASIwDQYJKoZIhvcN
AQEBBQADggEPADCCAQoCggEBALch4atrmFzJisIfyUcHldjgySTpqSSO3Q/nNGk9
gFyBzHrMY/0UoQCt2bUBHybALgEhPS/MRP0fJYZJcAbz8Ios8pABpxlB3e6Z2dlD
A7hDP4pqe/YTAAJ7/nA2vf0pKLLdRY9yrYT28yHj88eS59NHOvKwJOWOF97587TZ
+rXbte4HkdtBAzW7kz1R8xkBg0SYxJ6OPVeDsKqQhcH5rFwwafJCbxFfnxeeY5zF
VmeckvOoykUIRV2ypx6mX+ouT2+kXEHanRqdCzi9KY1g1Da/PXpzJigm6B4CWcF1
aGRo9EjhvyJu+GQVoB31+0hrRtXfcOL84QNu4wRBu7yb5r0CAwEAAaN7MHkwCQYD
VR0TBAIwADAsBglghkgBhvhCAQ0EHxYdT3BlblNTTCBHZW5lcmF0ZWQgQ2VydGlm
aWNhdGUwHQYDVR0OBBYEFJsQy92B1IIvDHHiHi/T83sneTM0MB8GA1UdIwQYMBaA
FDFISOJPH/lNr7DkR7RXhoV3ge+UMA0GCSqGSIb3DQEBCwUAA4IBAQDWI7f35jnV
NnM53ILYGS3sh2/4nRgp5bEHAbQJbSZB0PICYPAUthfu0PCBYyUg3XlVPxIfuRux
M0BezHYqwgrwyWTwpnSwIBD1D5ZgBFKAVmCI00xjH0pn+JOpzT1Lwwm0mYdMWdpX
aYNn8FTPfaengf63STPQNHxSL6GXvX7O5PptfK9xAAbBq/vcONCJQ6pg/JUpjpYW
MQXtBuhbg4OAKIjY83LFLHxQtvYWK5bPkPaqVqjw2MxGkaYlYVPJO3LpRd5CMXEc
Km3ZkmzMEKqm0lreYg8M7reEMG2GoWs9ISlSmSEoqQLuQpfkKIot0+aL/xbxG94m
FZ/Vr22+euaq
-----END CERTIFICATE-----
