Certificate:
    Data:
        Version: 3 (0x2)
        Serial Number: 6 (0x6)
        Signature Algorithm: sha256WithRSAEncryption
        Issuer: C=CN, ST=SH, O=ECNU, CN=CA
        Validity
            Not Before: Apr 19 02:56:44 2021 GMT
            Not After : Apr 19 02:56:44 2022 GMT
        Subject: C=CN, ST=SH, O=ECNU, CN=DASE6
        Subject Public Key Info:
            Public Key Algorithm: rsaEncryption
                RSA Public-Key: (2048 bit)
                Modulus:
                    00:dc:e0:e5:d8:41:b7:63:10:d9:6e:b1:04:32:d4:
                    43:30:66:94:51:fb:d0:4c:7b:e6:dd:7d:9a:36:88:
                    5d:b0:85:df:ba:87:03:be:0d:2a:b4:66:95:0f:13:
                    6c:1f:58:0a:ff:4c:73:64:40:5d:26:7f:ee:71:03:
                    8a:7c:b1:dd:1e:a3:cb:ba:77:60:cc:b1:29:65:34:
                    23:ff:c3:44:85:1f:ff:32:d9:16:b7:79:4f:d7:2f:
                    78:e3:b1:57:ee:5f:88:d1:44:ce:2a:70:03:eb:dd:
                    bb:f6:8c:41:64:05:f5:64:74:a4:55:35:a6:de:f2:
                    97:e2:65:83:fc:cc:b7:20:d4:50:39:4a:83:41:ea:
                    85:59:4b:b9:b7:2c:21:c8:3f:c4:44:fd:68:e8:31:
                    b7:de:0c:ce:e5:68:94:dd:11:6f:f5:4e:f6:c3:0e:
                    ff:e8:f3:6b:c7:d8:80:eb:87:2d:d8:00:6f:94:3a:
                    80:fb:c7:cd:13:21:f9:33:59:d5:c6:a5:62:87:f6:
                    91:69:2b:04:0b:dd:f7:04:9d:65:93:ed:eb:5e:38:
                    90:a9:d6:c5:58:9e:04:ab:5c:29:66:36:5a:8c:de:
                    3a:4a:02:4c:9a:c9:55:6e:c5:ec:bd:20:c0:ca:5d:
                    03:92:af:2d:ce:5e:c7:b0:32:f3:57:d7:dd:d8:ee:
                    9e:a5
                Exponent: 65537 (0x10001)
        X509v3 extensions:
            X509v3 Basic Constraints: 
                CA:FALSE
            Netscape Comment: 
                OpenSSL Generated Certificate
            X509v3 Subject Key Identifier: 
                F3:10:EA:2C:C1:91:0B:7B:59:5E:64:1C:59:4E:A2:39:9B:2F:42:2D
            X509v3 Authority Key Identifier: 
                keyid:66:C2:FE:39:79:74:65:5E:68:34:36:41:11:7D:85:85:6D:36:FD:C7

    Signature Algorithm: sha256WithRSAEncryption
         3b:f0:ad:b3:bc:c6:8d:79:db:c9:49:02:1b:12:87:7e:71:e7:
         f3:83:8f:d4:6b:14:95:29:b6:86:f5:d6:bf:a4:50:8d:39:6a:
         ef:d0:b1:42:8e:99:69:28:90:86:65:87:fc:7b:6e:06:c7:26:
         b0:00:82:63:d1:10:ec:a7:6a:a1:d5:2b:20:03:c6:b3:10:09:
         da:01:aa:35:4c:b4:bb:6f:b6:6c:c9:02:58:48:0f:bc:23:ec:
         62:cb:71:0c:e0:c8:b4:b0:5b:34:5c:6a:e5:d1:61:3d:c5:cd:
         d3:f4:5d:39:a1:db:77:cc:a4:6f:55:b1:5f:9e:b6:77:68:ac:
         60:38:19:ef:b1:6b:96:a9:94:37:fd:09:55:2b:a1:c0:ce:37:
         b0:29:11:f4:b1:f3:12:4f:87:e1:9c:78:3b:8e:0a:f6:00:95:
         b1:37:a9:c3:2f:f7:aa:3f:1b:11:91:e3:2e:a0:d5:e3:97:9d:
         6d:fd:58:e3:71:bd:ae:88:97:58:2e:e6:6b:c6:08:fb:7f:f8:
         ef:66:83:3c:fc:88:19:e2:e2:2f:93:80:09:ae:04:ea:df:2c:
         0a:79:34:a7:fd:33:5f:66:12:d9:d6:19:f6:0d:cf:c4:ac:39:
         21:71:c6:9a:67:f2:51:84:95:16:fd:48:10:76:00:88:83:08:
         33:6e:3b:c6
-----BEGIN CERTIFICATE-----
MIIDZTCCAk2gAwIBAgIBBjANBgkqhkiG9w0BAQsFADA2MQswCQYDVQQGEwJDTjEL
MAkGA1UECAwCU0gxDTALBgNVBAoMBEVDTlUxCzAJBgNVBAMMAkNBMB4XDTIxMDQx
OTAyNTY0NFoXDTIyMDQxOTAyNTY0NFowOTELMAkGA1UEBhMCQ04xCzAJBgNVBAgM
AlNIMQ0wCwYDVQQKDARFQ05VMQ4wDAYDVQQDDAVEQVNFNjCCASIwDQYJKoZIhvcN
AQEBBQADggEPADCCAQoCggEBANzg5dhBt2MQ2W6xBDLUQzBmlFH70Ex75t19mjaI
XbCF37qHA74NKrRmlQ8TbB9YCv9Mc2RAXSZ/7nEDinyx3R6jy7p3YMyxKWU0I//D
RIUf/zLZFrd5T9cveOOxV+5fiNFEzipwA+vdu/aMQWQF9WR0pFU1pt7yl+Jlg/zM
tyDUUDlKg0HqhVlLubcsIcg/xET9aOgxt94MzuVolN0Rb/VO9sMO/+jza8fYgOuH
LdgAb5Q6gPvHzRMh+TNZ1calYof2kWkrBAvd9wSdZZPt6144kKnWxVieBKtcKWY2
WozeOkoCTJrJVW7F7L0gwMpdA5KvLc5ex7Ay81fX3djunqUCAwEAAaN7MHkwCQYD
VR0TBAIwADAsBglghkgBhvhCAQ0EHxYdT3BlblNTTCBHZW5lcmF0ZWQgQ2VydGlm
aWNhdGUwHQYDVR0OBBYEFPMQ6izBkQt7WV5kHFlOojmbL0ItMB8GA1UdIwQYMBaA
FGbC/jl5dGVeaDQ2QRF9hYVtNv3HMA0GCSqGSIb3DQEBCwUAA4IBAQA78K2zvMaN
edvJSQIbEod+cefzg4/UaxSVKbaG9da/pFCNOWrv0LFCjplpKJCGZYf8e24Gxyaw
AIJj0RDsp2qh1SsgA8azEAnaAao1TLS7b7ZsyQJYSA+8I+xiy3EM4Mi0sFs0XGrl
0WE9xc3T9F05odt3zKRvVbFfnrZ3aKxgOBnvsWuWqZQ3/QlVK6HAzjewKRH0sfMS
T4fhnHg7jgr2AJWxN6nDL/eqPxsRkeMuoNXjl51t/Vjjcb2uiJdYLuZrxgj7f/jv
ZoM8/IgZ4uIvk4AJrgTq3ywKeTSn/TNfZhLZ1hn2Dc/ErDkhccaaZ/JRhJUW/UgQ
dgCIgwgzbjvG
-----END CERTIFICATE-----
