Certificate:
    Data:
        Version: 3 (0x2)
        Serial Number: 7 (0x7)
        Signature Algorithm: sha256WithRSAEncryption
        Issuer: C=CN, ST=SH, O=ECNU, CN=CA
        Validity
            Not Before: Apr 19 07:21:26 2021 GMT
            Not After : Apr 19 07:21:26 2022 GMT
        Subject: C=CN, ST=SH, O=ECNU, CN=DASE7
        Subject Public Key Info:
            Public Key Algorithm: rsaEncryption
                RSA Public-Key: (2048 bit)
                Modulus:
                    00:ab:70:a5:90:be:02:cc:eb:7d:ea:6b:8d:e4:52:
                    ed:94:35:f4:60:94:12:53:a0:37:89:45:2f:b5:b7:
                    6a:b1:17:6f:56:86:76:f7:1f:a7:e1:c5:6f:33:22:
                    06:be:ad:3e:87:d7:55:ba:05:e3:01:b1:35:f5:5d:
                    33:01:bf:83:32:99:7e:61:29:ad:80:05:f2:04:aa:
                    c8:0a:21:02:cc:d2:aa:35:46:00:49:99:ed:40:24:
                    3c:08:85:b2:70:a5:ec:60:48:86:12:7e:7b:21:c2:
                    e8:df:2a:0c:45:5d:11:ba:27:d9:4f:cb:c0:80:7b:
                    c0:80:23:e9:37:87:41:a8:2c:32:42:e9:a5:98:cd:
                    f4:a2:e8:c9:89:5f:b5:e1:ac:32:d9:0b:87:48:16:
                    dd:8e:1d:46:6d:f8:08:25:f2:34:02:3a:f1:7d:de:
                    42:00:fa:b3:44:ca:cf:1c:18:40:cd:b9:75:e7:09:
                    f2:ed:7a:89:79:ab:4d:a7:e4:ec:ee:74:8e:4a:3a:
                    9f:74:af:24:6c:32:82:02:d2:30:02:11:f4:9c:86:
                    7e:17:59:3a:e4:fb:a9:0b:ea:eb:eb:5f:dc:72:e6:
                    95:7a:ff:97:03:13:0c:f2:0b:c3:9c:16:c3:9b:b9:
                    ad:d2:42:1c:6f:eb:5c:54:42:b2:fc:43:71:ab:8f:
                    c3:a5
                Exponent: 65537 (0x10001)
        X509v3 extensions:
            X509v3 Basic Constraints: 
                CA:FALSE
            Netscape Comment: 
                OpenSSL Generated Certificate
            X509v3 Subject Key Identifier: 
                53:9E:05:15:9C:AD:CC:A6:9F:B3:42:08:8C:99:74:6D:05:46:31:78
            X509v3 Authority Key Identifier: 
                keyid:69:8F:70:6F:E3:92:68:AD:AF:08:DC:BC:4A:F7:49:15:CB:B7:0F:40

    Signature Algorithm: sha256WithRSAEncryption
         18:5a:14:31:7e:3c:8f:97:8d:47:e8:f0:50:c5:0a:e6:51:24:
         1b:86:5d:96:b3:9f:f6:c0:0b:75:2b:6c:cc:c3:41:2d:39:67:
         30:9d:d1:9b:50:88:15:5d:4f:3d:f2:1d:cd:f8:59:57:b0:7b:
         f0:01:f0:c6:b1:a7:d7:b1:52:37:0e:60:93:a9:6e:5b:a9:6c:
         bf:b4:7a:be:c4:05:87:10:20:f8:50:c5:cd:bf:f7:04:13:24:
         3b:d1:b0:69:73:e9:36:71:55:4e:7f:12:0d:f8:a3:7b:d4:88:
         7e:74:d7:e7:ad:06:66:73:27:6d:55:82:40:10:b2:9a:f6:1f:
         f8:8c:3d:76:ca:7d:fe:77:a7:dc:a0:1a:23:e2:1b:e5:d6:31:
         8e:95:4c:7d:ef:02:0a:2b:fb:1d:1d:ae:64:b4:fd:08:d1:ce:
         b5:dd:8f:d8:9b:46:4e:1b:09:e1:48:a8:80:f3:0f:72:b2:f8:
         e1:2c:d5:a6:58:3c:a1:ba:d9:a2:64:e0:a3:21:a7:e4:99:fd:
         e9:57:6c:65:de:73:3f:f4:0f:3c:ab:2c:1b:9f:3b:f5:75:99:
         c9:18:6b:65:32:f4:1b:2c:a7:a5:0e:6a:c0:07:3f:84:92:db:
         f6:59:67:e3:b5:b2:26:db:7b:4e:3c:8a:54:80:18:e9:93:5d:
         d9:de:4b:44
-----BEGIN CERTIFICATE-----
MIIDZTCCAk2gAwIBAgIBBzANBgkqhkiG9w0BAQsFADA2MQswCQYDVQQGEwJDTjEL
MAkGA1UECAwCU0gxDTALBgNVBAoMBEVDTlUxCzAJBgNVBAMMAkNBMB4XDTIxMDQx
OTA3MjEyNloXDTIyMDQxOTA3MjEyNlowOTELMAkGA1UEBhMCQ04xCzAJBgNVBAgM
AlNIMQ0wCwYDVQQKDARFQ05VMQ4wDAYDVQQDDAVEQVNFNzCCASIwDQYJKoZIhvcN
AQEBBQADggEPADCCAQoCggEBAKtwpZC+AszrfeprjeRS7ZQ19GCUElOgN4lFL7W3
arEXb1aGdvcfp+HFbzMiBr6tPofXVboF4wGxNfVdMwG/gzKZfmEprYAF8gSqyAoh
AszSqjVGAEmZ7UAkPAiFsnCl7GBIhhJ+eyHC6N8qDEVdEbon2U/LwIB7wIAj6TeH
QagsMkLppZjN9KLoyYlfteGsMtkLh0gW3Y4dRm34CCXyNAI68X3eQgD6s0TKzxwY
QM25decJ8u16iXmrTafk7O50jko6n3SvJGwyggLSMAIR9JyGfhdZOuT7qQvq6+tf
3HLmlXr/lwMTDPILw5wWw5u5rdJCHG/rXFRCsvxDcauPw6UCAwEAAaN7MHkwCQYD
VR0TBAIwADAsBglghkgBhvhCAQ0EHxYdT3BlblNTTCBHZW5lcmF0ZWQgQ2VydGlm
aWNhdGUwHQYDVR0OBBYEFFOeBRWcrcymn7NCCIyZdG0FRjF4MB8GA1UdIwQYMBaA
FGmPcG/jkmitrwjcvEr3SRXLtw9AMA0GCSqGSIb3DQEBCwUAA4IBAQAYWhQxfjyP
l41H6PBQxQrmUSQbhl2Ws5/2wAt1K2zMw0EtOWcwndGbUIgVXU898h3N+FlXsHvw
AfDGsafXsVI3DmCTqW5bqWy/tHq+xAWHECD4UMXNv/cEEyQ70bBpc+k2cVVOfxIN
+KN71Ih+dNfnrQZmcydtVYJAELKa9h/4jD12yn3+d6fcoBoj4hvl1jGOlUx97wIK
K/sdHa5ktP0I0c613Y/Ym0ZOGwnhSKiA8w9ysvjhLNWmWDyhutmiZOCjIafkmf3p
V2xl3nM/9A88qywbnzv1dZnJGGtlMvQbLKelDmrABz+Ektv2WWfjtbIm23tOPIpU
gBjpk13Z3ktE
-----END CERTIFICATE-----
