Certificate:
    Data:
        Version: 3 (0x2)
        Serial Number: 8 (0x8)
        Signature Algorithm: sha256WithRSAEncryption
        Issuer: C=CN, ST=SH, O=ECNU, CN=CA
        Validity
            Not Before: Apr 19 10:26:16 2021 GMT
            Not After : Apr 19 10:26:16 2022 GMT
        Subject: C=CN, ST=SH, O=ECNU, CN=DASE8
        Subject Public Key Info:
            Public Key Algorithm: rsaEncryption
                RSA Public-Key: (2048 bit)
                Modulus:
                    00:bc:3a:12:a7:8e:fd:06:ac:94:46:9a:b0:9e:75:
                    84:06:72:72:19:18:c2:01:98:55:01:c1:d8:fb:ca:
                    f2:72:a8:33:03:66:b4:57:d1:09:49:f3:a5:84:0a:
                    12:96:a2:64:33:b3:c2:ae:ac:b6:ae:4b:19:6a:f7:
                    11:27:b9:a1:6b:01:36:ea:d0:b1:8b:58:19:cd:92:
                    9e:71:f9:d8:bf:38:54:9f:d7:0d:1e:2a:bb:13:96:
                    e5:4a:bd:d9:37:db:26:77:df:fc:93:d9:5d:9d:0d:
                    d9:69:1e:03:df:42:79:a2:7b:9d:a5:d1:7c:3c:78:
                    ae:28:85:18:a8:76:06:74:40:24:d0:ed:81:f8:40:
                    b7:01:84:31:dd:88:3f:42:dd:50:ed:96:68:dd:11:
                    2e:15:84:5a:36:e8:48:7e:a0:ca:f7:4f:90:4f:95:
                    02:8a:29:95:4f:6a:d2:65:6c:51:e2:11:5c:cc:ec:
                    45:ae:99:52:b9:34:df:9d:62:1a:0a:06:43:ac:bf:
                    4c:2b:0a:aa:43:f8:2a:4e:08:db:c8:86:06:02:21:
                    75:6f:2d:fd:15:39:db:6c:7b:5f:74:de:9d:e3:8f:
                    01:7b:7a:02:23:3b:c4:92:16:d1:d6:1e:ba:2a:c4:
                    15:4a:ed:90:5e:bc:34:49:fe:0f:1b:4e:56:7c:1d:
                    f9:35
                Exponent: 65537 (0x10001)
        X509v3 extensions:
            X509v3 Basic Constraints: 
                CA:FALSE
            Netscape Comment: 
                OpenSSL Generated Certificate
            X509v3 Subject Key Identifier: 
                05:73:73:F4:F3:CA:E2:D9:C0:93:7F:5E:DC:08:DD:B1:BF:92:7A:A2
            X509v3 Authority Key Identifier: 
                keyid:69:8F:70:6F:E3:92:68:AD:AF:08:DC:BC:4A:F7:49:15:CB:B7:0F:40

    Signature Algorithm: sha256WithRSAEncryption
         66:c6:d1:ef:bd:c3:cd:9d:e3:2e:2c:fb:8d:80:74:cc:4c:44:
         88:ee:06:3f:90:b2:04:8b:cd:4f:38:8a:7a:23:49:94:e7:dc:
         e4:44:28:41:6e:df:3f:e8:35:01:a2:e1:f8:5f:e2:df:c1:14:
         b9:52:05:61:b7:be:59:12:67:83:51:d4:1d:67:35:10:6c:35:
         84:cc:42:62:b9:04:4e:3e:05:82:0d:6e:b4:ec:3a:b5:af:35:
         9d:41:6c:e8:59:dd:4a:1a:65:d5:bd:16:0f:9d:b9:5f:6f:4f:
         a0:29:1b:c1:28:7c:fe:bd:3d:6d:ef:f9:c4:a0:53:95:0e:b4:
         93:cf:18:cf:be:12:7b:fc:ea:b0:26:da:91:6e:70:2c:25:79:
         50:c9:5a:9a:6e:1d:52:d7:ff:08:c9:4f:e6:20:5e:fb:11:cb:
         47:50:1d:9e:e6:53:76:c6:eb:e6:e5:b3:0c:e1:16:35:74:79:
         24:80:82:c0:0d:49:35:dc:82:b1:50:09:84:26:c4:e0:a7:57:
         1c:fd:cd:70:8c:40:a9:99:5e:36:be:e0:f1:f6:af:9f:d3:34:
         d2:e7:e1:57:40:0e:c9:3b:34:8d:c5:60:18:11:e7:76:37:a4:
         6d:1b:48:a3:c9:48:30:2c:1d:f8:f8:5c:e7:84:67:db:97:6d:
         75:99:c2:f8
-----BEGIN CERTIFICATE-----
MIIDZTCCAk2gAwIBAgIBCDANBgkqhkiG9w0BAQsFADA2MQswCQYDVQQGEwJDTjEL
MAkGA1UECAwCU0gxDTALBgNVBAoMBEVDTlUxCzAJBgNVBAMMAkNBMB4XDTIxMDQx
OTEwMjYxNloXDTIyMDQxOTEwMjYxNlowOTELMAkGA1UEBhMCQ04xCzAJBgNVBAgM
AlNIMQ0wCwYDVQQKDARFQ05VMQ4wDAYDVQQDDAVEQVNFODCCASIwDQYJKoZIhvcN
AQEBBQADggEPADCCAQoCggEBALw6EqeO/QaslEaasJ51hAZychkYwgGYVQHB2PvK
8nKoMwNmtFfRCUnzpYQKEpaiZDOzwq6stq5LGWr3ESe5oWsBNurQsYtYGc2SnnH5
2L84VJ/XDR4quxOW5Uq92TfbJnff/JPZXZ0N2WkeA99CeaJ7naXRfDx4riiFGKh2
BnRAJNDtgfhAtwGEMd2IP0LdUO2WaN0RLhWEWjboSH6gyvdPkE+VAooplU9q0mVs
UeIRXMzsRa6ZUrk0351iGgoGQ6y/TCsKqkP4Kk4I28iGBgIhdW8t/RU522x7X3Te
neOPAXt6AiM7xJIW0dYeuirEFUrtkF68NEn+DxtOVnwd+TUCAwEAAaN7MHkwCQYD
VR0TBAIwADAsBglghkgBhvhCAQ0EHxYdT3BlblNTTCBHZW5lcmF0ZWQgQ2VydGlm
aWNhdGUwHQYDVR0OBBYEFAVzc/TzyuLZwJN/XtwI3bG/knqiMB8GA1UdIwQYMBaA
FGmPcG/jkmitrwjcvEr3SRXLtw9AMA0GCSqGSIb3DQEBCwUAA4IBAQBmxtHvvcPN
neMuLPuNgHTMTESI7gY/kLIEi81POIp6I0mU59zkRChBbt8/6DUBouH4X+LfwRS5
UgVht75ZEmeDUdQdZzUQbDWEzEJiuQROPgWCDW607Dq1rzWdQWzoWd1KGmXVvRYP
nblfb0+gKRvBKHz+vT1t7/nEoFOVDrSTzxjPvhJ7/OqwJtqRbnAsJXlQyVqabh1S
1/8IyU/mIF77EctHUB2e5lN2xuvm5bMM4RY1dHkkgILADUk13IKxUAmEJsTgp1cc
/c1wjECpmV42vuDx9q+f0zTS5+FXQA7JOzSNxWAYEed2N6RtG0ijyUgwLB34+Fzn
hGfbl211mcL4
-----END CERTIFICATE-----
