Certificate:
    Data:
        Version: 3 (0x2)
        Serial Number: 9 (0x9)
        Signature Algorithm: sha256WithRSAEncryption
        Issuer: C=CN, ST=SH, O=ECNU, CN=CA
        Validity
            Not Before: Apr 19 10:35:14 2021 GMT
            Not After : Apr 19 10:35:14 2022 GMT
        Subject: C=CN, ST=SH, O=ECNU, CN=DASE9
        Subject Public Key Info:
            Public Key Algorithm: rsaEncryption
                RSA Public-Key: (2048 bit)
                Modulus:
                    00:f5:95:72:da:9a:e0:b7:00:5c:30:90:3a:7b:51:
                    bf:a4:f7:49:bc:15:c1:3e:cf:d2:69:17:6e:4a:b8:
                    e2:09:7c:fc:1e:1b:3b:b9:1c:5a:78:3a:27:66:a5:
                    a9:c5:06:64:94:00:c0:6f:a1:f7:e1:43:ba:27:60:
                    fd:f3:fb:95:12:2f:4a:a7:bc:05:c4:25:5f:b0:05:
                    c6:91:fa:9d:4c:e4:08:e5:26:fb:84:7a:6c:bb:ca:
                    3a:d3:7e:92:51:b9:ab:27:59:45:e9:47:3a:c8:20:
                    6d:bc:71:52:07:53:bb:05:55:d8:08:d2:7f:f6:a1:
                    17:b4:d7:84:42:54:bd:78:fa:8f:ae:4c:45:97:96:
                    5a:88:52:d7:23:9b:56:a4:b3:eb:4a:52:4e:a4:08:
                    17:4c:e4:98:c8:6b:a1:42:5c:92:21:43:91:3c:d1:
                    49:62:e3:a9:22:a7:b6:b7:fb:75:20:3b:0a:2b:db:
                    7b:c8:c6:88:1b:bd:2e:29:b9:c7:1d:ad:cd:24:47:
                    46:ca:0f:90:f4:9e:0a:3c:ad:3e:d7:6a:59:fc:6c:
                    1f:6a:dd:8f:3c:4f:96:a4:f0:c7:3d:d4:d5:72:82:
                    de:30:5e:4e:ef:75:70:a6:e1:94:df:19:65:08:06:
                    46:01:1a:10:8e:4d:34:18:27:0a:34:91:f3:55:32:
                    53:2f
                Exponent: 65537 (0x10001)
        X509v3 extensions:
            X509v3 Basic Constraints: 
                CA:FALSE
            Netscape Comment: 
                OpenSSL Generated Certificate
            X509v3 Subject Key Identifier: 
                6B:93:D9:81:7D:FA:8D:C3:99:A2:F5:3E:53:C5:10:FC:2E:AF:1E:33
            X509v3 Authority Key Identifier: 
                keyid:69:8F:70:6F:E3:92:68:AD:AF:08:DC:BC:4A:F7:49:15:CB:B7:0F:40

    Signature Algorithm: sha256WithRSAEncryption
         0c:6a:91:e0:5f:58:cb:33:97:95:e6:2b:e6:6e:5f:75:39:bc:
         41:ea:37:d4:f8:fc:d9:3d:a6:84:89:67:25:c8:31:67:d0:6d:
         02:a6:60:42:b5:d9:42:fb:0d:cb:eb:6e:d1:7d:37:65:82:d2:
         59:04:8e:6f:fe:6e:c6:02:c6:81:ea:b8:ea:51:4f:3c:1b:90:
         b6:f1:78:db:ef:6f:d6:84:b9:12:c1:b7:db:fe:36:e0:fc:90:
         85:8f:a9:8d:98:7a:da:87:c0:5b:f7:11:3c:1c:1d:39:83:82:
         e8:cf:c0:78:d5:2d:59:3b:91:cc:f0:f7:07:bc:3d:02:50:a0:
         0e:72:b9:de:5d:4a:9a:a7:11:26:91:4a:c9:34:da:b3:cc:e3:
         e8:dd:2d:3e:b0:ad:36:ac:e8:e1:bc:fa:3a:4e:f1:40:25:6e:
         d9:6e:c3:3a:09:1f:03:72:3f:b9:2e:6d:0c:e2:65:ba:f9:c4:
         78:b9:d4:b1:be:c3:fc:90:25:62:6f:ab:e8:40:db:33:12:96:
         df:36:93:24:ef:72:47:7d:03:5f:94:66:8e:a5:d4:60:1a:71:
         c2:5a:62:e6:c3:4d:69:d0:9f:a3:0e:0d:63:34:da:ba:14:81:
         6d:fb:01:78:9c:a2:9e:21:3c:ab:8d:42:06:0b:7f:cc:79:00:
         fb:73:92:ea
-----BEGIN CERTIFICATE-----
MIIDZTCCAk2gAwIBAgIBCTANBgkqhkiG9w0BAQsFADA2MQswCQYDVQQGEwJDTjEL
MAkGA1UECAwCU0gxDTALBgNVBAoMBEVDTlUxCzAJBgNVBAMMAkNBMB4XDTIxMDQx
OTEwMzUxNFoXDTIyMDQxOTEwMzUxNFowOTELMAkGA1UEBhMCQ04xCzAJBgNVBAgM
AlNIMQ0wCwYDVQQKDARFQ05VMQ4wDAYDVQQDDAVEQVNFOTCCASIwDQYJKoZIhvcN
AQEBBQADggEPADCCAQoCggEBAPWVctqa4LcAXDCQOntRv6T3SbwVwT7P0mkXbkq4
4gl8/B4bO7kcWng6J2alqcUGZJQAwG+h9+FDuidg/fP7lRIvSqe8BcQlX7AFxpH6
nUzkCOUm+4R6bLvKOtN+klG5qydZRelHOsggbbxxUgdTuwVV2AjSf/ahF7TXhEJU
vXj6j65MRZeWWohS1yObVqSz60pSTqQIF0zkmMhroUJckiFDkTzRSWLjqSKntrf7
dSA7Civbe8jGiBu9Lim5xx2tzSRHRsoPkPSeCjytPtdqWfxsH2rdjzxPlqTwxz3U
1XKC3jBeTu91cKbhlN8ZZQgGRgEaEI5NNBgnCjSR81UyUy8CAwEAAaN7MHkwCQYD
VR0TBAIwADAsBglghkgBhvhCAQ0EHxYdT3BlblNTTCBHZW5lcmF0ZWQgQ2VydGlm
aWNhdGUwHQYDVR0OBBYEFGuT2YF9+o3DmaL1PlPFEPwurx4zMB8GA1UdIwQYMBaA
FGmPcG/jkmitrwjcvEr3SRXLtw9AMA0GCSqGSIb3DQEBCwUAA4IBAQAMapHgX1jL
M5eV5ivmbl91ObxB6jfU+PzZPaaEiWclyDFn0G0CpmBCtdlC+w3L627RfTdlgtJZ
BI5v/m7GAsaB6rjqUU88G5C28Xjb72/WhLkSwbfb/jbg/JCFj6mNmHrah8Bb9xE8
HB05g4Loz8B41S1ZO5HM8PcHvD0CUKAOcrneXUqapxEmkUrJNNqzzOPo3S0+sK02
rOjhvPo6TvFAJW7ZbsM6CR8Dcj+5Lm0M4mW6+cR4udSxvsP8kCVib6voQNszEpbf
NpMk73JHfQNflGaOpdRgGnHCWmLmw01p0J+jDg1jNNq6FIFt+wF4nKKeITyrjUIG
C3/MeQD7c5Lq
-----END CERTIFICATE-----
