Certificate:
    Data:
        Version: 3 (0x2)
        Serial Number: 10 (0xa)
        Signature Algorithm: sha256WithRSAEncryption
        Issuer: C=CN, ST=SH, O=ECNU, CN=CA
        Validity
            Not Before: Apr 19 10:51:01 2021 GMT
            Not After : Apr 19 10:51:01 2022 GMT
        Subject: C=CN, ST=SH, O=ECNU, CN=DASE10
        Subject Public Key Info:
            Public Key Algorithm: rsaEncryption
                RSA Public-Key: (2048 bit)
                Modulus:
                    00:d6:c4:6c:84:bd:89:84:87:81:48:73:e3:c9:bf:
                    cd:cb:3a:49:23:66:1a:ab:21:42:d6:f0:93:51:0f:
                    29:3c:73:fd:a6:63:39:6e:f8:3b:34:70:42:29:d4:
                    03:27:e9:c2:89:4a:61:5c:cd:57:5e:be:bc:b0:5e:
                    dc:20:2b:8f:d4:54:bd:ca:08:d4:9f:45:44:25:4f:
                    02:d6:ff:e7:f6:bf:53:c4:ba:67:16:b9:83:68:7c:
                    37:54:ae:1e:b7:9d:5f:66:92:3e:ca:63:04:bf:ea:
                    1a:3d:4d:91:30:47:81:ee:50:b7:e4:af:61:74:33:
                    9b:42:8a:4e:04:b5:b3:76:cd:e7:cd:40:d8:db:fa:
                    e9:52:cd:e6:dc:a7:b3:9a:35:a8:e4:d6:a7:41:86:
                    4e:2d:64:fa:ff:6f:4e:ec:20:46:50:72:17:1a:08:
                    88:db:86:22:1e:13:c4:f7:19:86:49:4f:77:97:f5:
                    ce:07:75:c3:c7:81:75:4a:0e:d8:45:07:af:26:22:
                    52:dd:be:ff:6f:17:29:ad:9b:03:b3:13:53:35:25:
                    db:26:1a:36:26:90:6f:f4:de:ab:c3:7c:74:6d:8f:
                    0a:e1:a4:eb:04:23:65:57:66:6f:9e:43:48:75:79:
                    c6:c7:ed:e8:33:67:79:52:1a:5d:2b:05:d8:da:a6:
                    08:27
                Exponent: 65537 (0x10001)
        X509v3 extensions:
            X509v3 Basic Constraints: 
                CA:FALSE
            Netscape Comment: 
                OpenSSL Generated Certificate
            X509v3 Subject Key Identifier: 
                3D:05:E4:65:E0:6B:71:84:66:19:B5:AC:4F:91:47:FA:1B:E2:DD:1A
            X509v3 Authority Key Identifier: 
                keyid:69:8F:70:6F:E3:92:68:AD:AF:08:DC:BC:4A:F7:49:15:CB:B7:0F:40

    Signature Algorithm: sha256WithRSAEncryption
         20:6e:38:2d:0f:ff:e1:90:d5:64:79:43:2b:60:49:c6:0f:4b:
         20:f8:fa:38:ee:d7:5b:7f:97:03:8c:25:bd:f7:4b:16:1d:ef:
         aa:fa:14:26:96:49:b4:b5:00:c4:f3:2b:d1:04:63:0d:07:9a:
         e5:24:f4:dc:e1:92:25:42:f6:be:ad:52:8e:5e:72:25:99:c8:
         8b:73:3f:f6:8b:5b:46:a5:fb:a6:2a:7c:81:1c:8a:91:a6:2b:
         15:3f:99:b5:15:68:8d:71:3c:c2:b0:0e:71:c2:12:12:f4:f8:
         9f:6f:cc:0f:52:10:87:1e:79:d9:e2:f7:d4:96:ee:f9:eb:a6:
         3c:4f:c7:98:ab:d5:92:b1:6a:49:33:11:e5:be:0b:30:d6:30:
         dd:3c:96:6a:4b:8f:38:58:77:26:16:50:75:69:bb:ee:33:a8:
         f9:7e:a4:5c:c7:41:d7:ff:ee:f1:4d:dd:ea:76:cd:be:d0:bb:
         a0:62:91:56:54:45:73:93:aa:02:41:d4:97:2d:9c:30:6d:34:
         ae:d0:4a:ae:89:87:4c:04:64:56:9c:cd:ac:1e:f5:08:27:67:
         92:2e:65:17:d2:f2:2a:df:3d:e2:66:b8:7b:ff:67:69:37:0f:
         80:d3:23:aa:84:31:0f:98:b9:39:83:5b:a4:71:ee:5f:9a:5a:
         5f:88:25:86
-----BEGIN CERTIFICATE-----
MIIDZjCCAk6gAwIBAgIBCjANBgkqhkiG9w0BAQsFADA2MQswCQYDVQQGEwJDTjEL
MAkGA1UECAwCU0gxDTALBgNVBAoMBEVDTlUxCzAJBgNVBAMMAkNBMB4XDTIxMDQx
OTEwNTEwMVoXDTIyMDQxOTEwNTEwMVowOjELMAkGA1UEBhMCQ04xCzAJBgNVBAgM
AlNIMQ0wCwYDVQQKDARFQ05VMQ8wDQYDVQQDDAZEQVNFMTAwggEiMA0GCSqGSIb3
DQEBAQUAA4IBDwAwggEKAoIBAQDWxGyEvYmEh4FIc+PJv83LOkkjZhqrIULW8JNR
Dyk8c/2mYzlu+Ds0cEIp1AMn6cKJSmFczVdevrywXtwgK4/UVL3KCNSfRUQlTwLW
/+f2v1PEumcWuYNofDdUrh63nV9mkj7KYwS/6ho9TZEwR4HuULfkr2F0M5tCik4E
tbN2zefNQNjb+ulSzebcp7OaNajk1qdBhk4tZPr/b07sIEZQchcaCIjbhiIeE8T3
GYZJT3eX9c4HdcPHgXVKDthFB68mIlLdvv9vFymtmwOzE1M1JdsmGjYmkG/03qvD
fHRtjwrhpOsEI2VXZm+eQ0h1ecbH7egzZ3lSGl0rBdjapggnAgMBAAGjezB5MAkG
A1UdEwQCMAAwLAYJYIZIAYb4QgENBB8WHU9wZW5TU0wgR2VuZXJhdGVkIENlcnRp
ZmljYXRlMB0GA1UdDgQWBBQ9BeRl4GtxhGYZtaxPkUf6G+LdGjAfBgNVHSMEGDAW
gBRpj3Bv45Jora8I3LxK90kVy7cPQDANBgkqhkiG9w0BAQsFAAOCAQEAIG44LQ//
4ZDVZHlDK2BJxg9LIPj6OO7XW3+XA4wlvfdLFh3vqvoUJpZJtLUAxPMr0QRjDQea
5ST03OGSJUL2vq1Sjl5yJZnIi3M/9otbRqX7pip8gRyKkaYrFT+ZtRVojXE8wrAO
ccISEvT4n2/MD1IQhx552eL31Jbu+eumPE/HmKvVkrFqSTMR5b4LMNYw3TyWakuP
OFh3JhZQdWm77jOo+X6kXMdB1//u8U3d6nbNvtC7oGKRVlRFc5OqAkHUly2cMG00
rtBKromHTARkVpzNrB71CCdnki5lF9LyKt894ma4e/9naTcPgNMjqoQxD5i5OYNb
pHHuX5paX4glhg==
-----END CERTIFICATE-----
