Certificate:
    Data:
        Version: 3 (0x2)
        Serial Number: 11 (0xb)
        Signature Algorithm: sha256WithRSAEncryption
        Issuer: C=CN, ST=SH, O=ECNU, CN=CA
        Validity
            Not Before: Apr 19 10:52:21 2021 GMT
            Not After : Apr 19 10:52:21 2022 GMT
        Subject: C=CN, ST=SH, O=ECNU, CN=DASE11
        Subject Public Key Info:
            Public Key Algorithm: rsaEncryption
                RSA Public-Key: (2048 bit)
                Modulus:
                    00:f0:b6:5a:d2:73:95:56:d8:95:77:42:8e:21:9c:
                    aa:8d:f7:61:89:a5:14:96:73:ae:a2:61:f5:ec:21:
                    95:a4:c0:20:14:21:51:60:5b:0f:5b:9f:3f:3a:90:
                    46:b5:b7:a2:5e:10:c5:89:f4:f3:bf:5f:bc:94:65:
                    1e:0f:78:c7:fc:6d:42:d9:a5:ba:b2:19:3e:38:00:
                    aa:28:85:71:01:9d:d9:49:db:3b:52:ba:55:46:8a:
                    d2:38:f6:a6:49:00:11:91:bc:23:e7:da:da:c8:6b:
                    1f:5c:e1:84:c3:53:90:b3:24:95:45:eb:83:30:f5:
                    2f:8d:2c:9c:77:42:c9:68:b2:6e:74:de:6e:66:c0:
                    ff:ab:85:d0:4e:d8:45:94:95:21:ed:b5:6a:87:cc:
                    2c:df:92:83:ab:79:bf:d2:0f:79:41:0a:03:f4:a4:
                    95:c2:73:9b:2a:52:cd:21:c9:18:cb:2c:24:7d:e2:
                    d5:eb:cb:e5:b4:ae:88:95:3b:09:12:ba:33:93:70:
                    d9:42:e4:f5:85:8c:a9:e7:69:87:7c:9f:8c:98:dc:
                    1d:c8:74:47:83:8a:d6:bb:a1:64:d0:81:de:b4:ff:
                    db:85:10:65:cf:26:64:d7:61:42:2b:23:79:da:e2:
                    d5:80:f1:a3:be:eb:a6:2c:e8:33:ed:fe:5e:04:5e:
                    99:5b
                Exponent: 65537 (0x10001)
        X509v3 extensions:
            X509v3 Basic Constraints: 
                CA:FALSE
            Netscape Comment: 
                OpenSSL Generated Certificate
            X509v3 Subject Key Identifier: 
                B5:A9:E0:61:33:98:81:EA:70:6E:E3:9D:54:B1:8B:AB:F4:62:BF:6F
            X509v3 Authority Key Identifier: 
                keyid:69:8F:70:6F:E3:92:68:AD:AF:08:DC:BC:4A:F7:49:15:CB:B7:0F:40

    Signature Algorithm: sha256WithRSAEncryption
         88:29:af:27:92:bc:e9:37:82:9d:10:f2:98:ae:45:27:c0:f3:
         e8:93:75:63:8e:e9:4e:bd:1e:91:b6:90:6b:a9:15:9b:0e:a7:
         ef:7e:2f:97:2c:88:84:69:4d:73:d4:e7:c7:e1:dc:d1:e2:34:
         fd:34:a7:b8:a9:02:3d:0f:6f:2f:c7:f2:d0:84:78:64:9e:42:
         e2:71:97:65:85:d7:29:09:50:6e:e0:99:7f:49:c9:08:4d:fd:
         42:9c:4b:71:56:d1:aa:7a:da:94:34:7f:9f:47:91:eb:7a:8f:
         8a:f9:54:18:53:98:4c:dd:69:06:2d:76:12:95:99:94:00:4f:
         7a:59:51:bc:d3:29:55:6d:74:e5:55:7b:30:d0:ff:a9:56:d1:
         3a:63:89:ce:74:dd:09:a1:3a:22:9d:79:dc:e5:84:67:73:7d:
         0e:91:a1:fe:47:49:0b:bf:d8:50:81:b1:05:d5:55:a0:86:50:
         ff:e1:c5:68:12:9d:29:96:8d:52:71:90:b9:4d:2b:35:4d:c7:
         82:2c:21:5f:cb:8e:fe:9d:62:f7:08:84:42:46:e8:7d:75:85:
         f0:d3:f6:f6:81:21:9e:82:2e:9f:a3:d4:2f:7d:05:62:b2:c8:
         ac:66:8b:02:b7:bd:2e:0c:0c:84:e1:4c:13:05:3d:2d:1d:e8:
         bf:64:1f:e1
-----BEGIN CERTIFICATE-----
MIIDZjCCAk6gAwIBAgIBCzANBgkqhkiG9w0BAQsFADA2MQswCQYDVQQGEwJDTjEL
MAkGA1UECAwCU0gxDTALBgNVBAoMBEVDTlUxCzAJBgNVBAMMAkNBMB4XDTIxMDQx
OTEwNTIyMVoXDTIyMDQxOTEwNTIyMVowOjELMAkGA1UEBhMCQ04xCzAJBgNVBAgM
AlNIMQ0wCwYDVQQKDARFQ05VMQ8wDQYDVQQDDAZEQVNFMTEwggEiMA0GCSqGSIb3
DQEBAQUAA4IBDwAwggEKAoIBAQDwtlrSc5VW2JV3Qo4hnKqN92GJpRSWc66iYfXs
IZWkwCAUIVFgWw9bnz86kEa1t6JeEMWJ9PO/X7yUZR4PeMf8bULZpbqyGT44AKoo
hXEBndlJ2ztSulVGitI49qZJABGRvCPn2trIax9c4YTDU5CzJJVF64Mw9S+NLJx3
Qslosm503m5mwP+rhdBO2EWUlSHttWqHzCzfkoOreb/SD3lBCgP0pJXCc5sqUs0h
yRjLLCR94tXry+W0roiVOwkSujOTcNlC5PWFjKnnaYd8n4yY3B3IdEeDita7oWTQ
gd60/9uFEGXPJmTXYUIrI3na4tWA8aO+66Ys6DPt/l4EXplbAgMBAAGjezB5MAkG
A1UdEwQCMAAwLAYJYIZIAYb4QgENBB8WHU9wZW5TU0wgR2VuZXJhdGVkIENlcnRp
ZmljYXRlMB0GA1UdDgQWBBS1qeBhM5iB6nBu451UsYur9GK/bzAfBgNVHSMEGDAW
gBRpj3Bv45Jora8I3LxK90kVy7cPQDANBgkqhkiG9w0BAQsFAAOCAQEAiCmvJ5K8
6TeCnRDymK5FJ8Dz6JN1Y47pTr0ekbaQa6kVmw6n734vlyyIhGlNc9Tnx+Hc0eI0
/TSnuKkCPQ9vL8fy0IR4ZJ5C4nGXZYXXKQlQbuCZf0nJCE39QpxLcVbRqnralDR/
n0eR63qPivlUGFOYTN1pBi12EpWZlABPellRvNMpVW105VV7MND/qVbROmOJznTd
CaE6Ip153OWEZ3N9DpGh/kdJC7/YUIGxBdVVoIZQ/+HFaBKdKZaNUnGQuU0rNU3H
giwhX8uO/p1i9wiEQkbofXWF8NP29oEhnoIun6PUL30FYrLIrGaLAre9LgwMhOFM
EwU9LR3ov2Qf4Q==
-----END CERTIFICATE-----
