Certificate:
    Data:
        Version: 3 (0x2)
        Serial Number: 12 (0xc)
        Signature Algorithm: sha256WithRSAEncryption
        Issuer: C=CN, ST=SH, O=ECNU, CN=CA
        Validity
            Not Before: Apr 19 10:53:41 2021 GMT
            Not After : Apr 19 10:53:41 2022 GMT
        Subject: C=CN, ST=SH, O=ECNU, CN=DASE12
        Subject Public Key Info:
            Public Key Algorithm: rsaEncryption
                RSA Public-Key: (2048 bit)
                Modulus:
                    00:a8:8c:1f:3c:d4:4b:bb:6d:4c:6b:d0:ee:a7:6a:
                    49:ac:ad:0c:75:0e:88:3e:b0:a2:1d:0c:21:28:86:
                    8b:bf:42:d4:de:74:2a:03:53:90:98:a2:3c:38:fa:
                    7b:5e:87:35:00:12:56:a4:9e:81:4e:0f:c2:61:63:
                    18:c5:f9:e4:61:db:f8:4c:50:47:8b:24:04:68:c3:
                    e6:80:3c:ce:b9:fe:b0:b7:b4:06:34:29:ea:0f:7c:
                    7d:41:82:c5:91:7c:a8:86:7e:97:fa:2b:96:6d:d0:
                    4b:ab:0b:d7:d6:f5:0b:de:67:97:93:7b:58:2a:58:
                    c0:1a:3d:52:8f:af:87:28:23:c6:e9:ec:82:00:c6:
                    79:19:b2:43:ae:48:71:42:4b:69:d5:b6:be:a0:56:
                    71:c9:dc:12:39:f9:cc:84:a7:5f:cd:96:48:51:e6:
                    3a:f6:d1:f3:21:10:e1:6c:21:30:8c:e0:25:65:3d:
                    21:74:e6:10:ab:ee:28:1f:6f:da:4a:47:56:47:28:
                    33:9b:c9:71:a7:12:3e:e1:bd:12:e3:3a:6f:ac:3f:
                    30:62:3d:f8:91:89:a4:45:a1:1e:99:19:09:89:8c:
                    a7:b3:3f:37:fa:e7:ea:0f:73:c2:0f:1c:4f:f8:17:
                    fb:e5:52:73:9d:7f:24:e5:f3:84:ee:e7:78:0e:37:
                    53:fb
                Exponent: 65537 (0x10001)
        X509v3 extensions:
            X509v3 Basic Constraints: 
                CA:FALSE
            Netscape Comment: 
                OpenSSL Generated Certificate
            X509v3 Subject Key Identifier: 
                CA:4B:72:35:97:AC:73:79:C7:79:0D:53:9C:6A:E8:62:A6:FD:02:10
            X509v3 Authority Key Identifier: 
                keyid:69:8F:70:6F:E3:92:68:AD:AF:08:DC:BC:4A:F7:49:15:CB:B7:0F:40

    Signature Algorithm: sha256WithRSAEncryption
         58:e9:82:24:66:e5:02:a4:44:a0:ab:17:8d:24:d6:fa:7a:16:
         3b:d0:ed:b1:a0:af:ab:06:71:2e:f9:3e:0f:15:04:ed:af:56:
         aa:a6:49:9d:23:37:42:a2:5e:93:9b:80:14:b1:60:f8:da:1b:
         9b:fb:1e:10:87:be:c2:a8:19:9c:0b:28:8d:c4:e7:79:24:e2:
         36:8d:23:6e:15:67:8a:75:36:3a:72:45:16:91:b6:dd:42:52:
         dc:67:c7:83:ea:22:02:6c:1d:28:af:16:57:a2:5b:a5:d2:47:
         c5:a7:2f:76:87:64:46:72:cf:af:7b:ce:39:a8:2c:a6:7d:2d:
         5b:54:f8:84:ed:46:27:d3:7e:9d:4a:28:97:fc:56:69:18:bc:
         7c:f1:ed:99:58:32:4a:41:8e:82:5e:a2:c9:cd:2a:65:83:4a:
         e6:ae:fa:5f:cd:84:c9:10:b8:4f:64:80:f8:13:c0:c0:83:88:
         3e:22:85:51:f2:c1:f0:b4:fd:b1:10:b7:3e:00:40:3b:d7:33:
         af:1f:56:12:ba:62:03:48:5b:c7:f6:06:14:b5:39:3d:44:59:
         32:d3:7c:87:86:cb:73:62:0c:b6:80:69:94:61:13:5f:f4:14:
         59:b4:c5:0d:86:02:20:00:e7:a1:69:11:82:9f:ec:24:dd:93:
         05:84:06:98
-----BEGIN CERTIFICATE-----
MIIDZjCCAk6gAwIBAgIBDDANBgkqhkiG9w0BAQsFADA2MQswCQYDVQQGEwJDTjEL
MAkGA1UECAwCU0gxDTALBgNVBAoMBEVDTlUxCzAJBgNVBAMMAkNBMB4XDTIxMDQx
OTEwNTM0MVoXDTIyMDQxOTEwNTM0MVowOjELMAkGA1UEBhMCQ04xCzAJBgNVBAgM
AlNIMQ0wCwYDVQQKDARFQ05VMQ8wDQYDVQQDDAZEQVNFMTIwggEiMA0GCSqGSIb3
DQEBAQUAA4IBDwAwggEKAoIBAQCojB881Eu7bUxr0O6nakmsrQx1Dog+sKIdDCEo
hou/QtTedCoDU5CYojw4+ntehzUAElaknoFOD8JhYxjF+eRh2/hMUEeLJARow+aA
PM65/rC3tAY0KeoPfH1BgsWRfKiGfpf6K5Zt0EurC9fW9QveZ5eTe1gqWMAaPVKP
r4coI8bp7IIAxnkZskOuSHFCS2nVtr6gVnHJ3BI5+cyEp1/NlkhR5jr20fMhEOFs
ITCM4CVlPSF05hCr7igfb9pKR1ZHKDObyXGnEj7hvRLjOm+sPzBiPfiRiaRFoR6Z
GQmJjKezPzf65+oPc8IPHE/4F/vlUnOdfyTl84Tu53gON1P7AgMBAAGjezB5MAkG
A1UdEwQCMAAwLAYJYIZIAYb4QgENBB8WHU9wZW5TU0wgR2VuZXJhdGVkIENlcnRp
ZmljYXRlMB0GA1UdDgQWBBTKS3I1l6xzecd5DVOcauhipv0CEDAfBgNVHSMEGDAW
gBRpj3Bv45Jora8I3LxK90kVy7cPQDANBgkqhkiG9w0BAQsFAAOCAQEAWOmCJGbl
AqREoKsXjSTW+noWO9DtsaCvqwZxLvk+DxUE7a9WqqZJnSM3QqJek5uAFLFg+Nob
m/seEIe+wqgZnAsojcTneSTiNo0jbhVninU2OnJFFpG23UJS3GfHg+oiAmwdKK8W
V6JbpdJHxacvdodkRnLPr3vOOagspn0tW1T4hO1GJ9N+nUool/xWaRi8fPHtmVgy
SkGOgl6iyc0qZYNK5q76X82EyRC4T2SA+BPAwIOIPiKFUfLB8LT9sRC3PgBAO9cz
rx9WErpiA0hbx/YGFLU5PURZMtN8h4bLc2IMtoBplGETX/QUWbTFDYYCIADnoWkR
gp/sJN2TBYQGmA==
-----END CERTIFICATE-----
