Certificate:
    Data:
        Version: 3 (0x2)
        Serial Number: 13 (0xd)
        Signature Algorithm: sha256WithRSAEncryption
        Issuer: C=CN, ST=SH, O=ECNU, CN=CA
        Validity
            Not Before: Apr 19 10:53:58 2021 GMT
            Not After : Apr 19 10:53:58 2022 GMT
        Subject: C=CN, ST=SH, O=ECNU, CN=DASE13
        Subject Public Key Info:
            Public Key Algorithm: rsaEncryption
                RSA Public-Key: (2048 bit)
                Modulus:
                    00:e1:98:4b:ad:d2:34:ab:f5:b9:29:2c:33:60:1b:
                    e8:4f:2d:cb:e7:b3:d2:24:8f:71:2a:3d:5b:a5:1d:
                    1a:ed:8e:03:5e:35:7e:2f:ff:c0:1b:76:df:7b:19:
                    ef:e6:d5:3d:25:ef:17:d0:9f:37:30:87:20:b8:f7:
                    16:fe:f6:b0:c6:e2:9a:33:a8:e6:8a:4e:c4:63:2a:
                    c3:4c:ac:17:83:27:91:ab:92:e3:8e:02:5e:2f:f9:
                    b4:e2:54:09:f8:d5:c3:9d:37:b0:ba:64:4e:d7:59:
                    1f:54:d7:47:ae:d4:3a:a5:c2:f1:d4:01:d7:82:3e:
                    d3:a7:54:79:15:fe:f8:41:a3:f1:a1:b8:19:59:34:
                    e1:da:e4:87:c6:b2:8f:4d:1b:bf:43:ec:09:f8:df:
                    f6:37:d3:ae:49:ac:ca:2d:27:db:75:5b:25:6e:11:
                    38:48:55:db:c8:aa:9c:07:44:2a:a3:c5:86:b7:b1:
                    24:b4:f8:f4:41:d6:ea:8b:15:26:88:d7:5d:4f:7a:
                    c3:e0:de:aa:cb:e0:4e:86:b1:78:81:f5:7a:7e:48:
                    c0:4a:d2:ef:5a:a7:ed:fd:f8:c1:3e:cd:6a:4f:cd:
                    26:05:ae:0f:53:c9:ca:b1:d3:09:52:98:fe:b0:6a:
                    42:15:32:2a:99:09:44:b0:2b:ff:1e:63:00:e4:ce:
                    0e:0d
                Exponent: 65537 (0x10001)
        X509v3 extensions:
            X509v3 Basic Constraints: 
                CA:FALSE
            Netscape Comment: 
                OpenSSL Generated Certificate
            X509v3 Subject Key Identifier: 
                58:05:19:90:BF:71:DD:EB:C9:32:E7:5B:1B:85:41:00:09:6F:C9:E3
            X509v3 Authority Key Identifier: 
                keyid:69:8F:70:6F:E3:92:68:AD:AF:08:DC:BC:4A:F7:49:15:CB:B7:0F:40

    Signature Algorithm: sha256WithRSAEncryption
         99:de:7e:0a:b3:f4:a0:d9:f7:53:b8:7a:04:50:04:62:2a:ce:
         6f:6d:e7:e3:f0:6b:c6:e3:4e:52:04:37:92:ba:82:9c:03:37:
         db:4f:2e:65:8b:51:ac:ad:28:f9:f3:f5:4b:0e:e7:b9:8d:e2:
         c4:90:5a:a4:bf:8f:f0:74:2d:2a:e0:bb:94:46:00:7b:b5:38:
         49:fb:c3:6d:b0:66:c1:45:d6:e1:96:66:88:e0:1d:7e:cd:ce:
         16:2e:8f:a6:ab:45:b1:75:20:4f:d8:33:ac:13:7d:47:50:e8:
         94:4b:13:72:49:12:11:42:69:d2:9f:6b:55:22:e6:62:53:01:
         30:ee:98:80:62:be:93:f7:ab:78:79:9b:79:73:07:d7:31:5c:
         5b:bc:e4:94:66:b9:96:10:d9:7d:10:55:b0:65:c8:54:1e:78:
         a8:03:70:38:e9:5d:e0:ae:b8:f9:cb:c6:74:f1:d6:41:6f:c0:
         5b:ef:58:48:82:4a:02:f0:02:4a:1c:a8:2d:59:b7:e4:55:de:
         36:92:77:a8:66:86:d8:4f:e6:60:60:9f:16:91:d2:97:47:4d:
         a1:26:69:3c:43:0b:0f:1e:6f:64:db:0b:80:f2:58:56:a6:93:
         e3:1e:62:55:f3:21:85:74:ad:e6:97:b3:04:6b:8e:da:9d:50:
         ef:82:7e:ba
-----BEGIN CERTIFICATE-----
MIIDZjCCAk6gAwIBAgIBDTANBgkqhkiG9w0BAQsFADA2MQswCQYDVQQGEwJDTjEL
MAkGA1UECAwCU0gxDTALBgNVBAoMBEVDTlUxCzAJBgNVBAMMAkNBMB4XDTIxMDQx
OTEwNTM1OFoXDTIyMDQxOTEwNTM1OFowOjELMAkGA1UEBhMCQ04xCzAJBgNVBAgM
AlNIMQ0wCwYDVQQKDARFQ05VMQ8wDQYDVQQDDAZEQVNFMTMwggEiMA0GCSqGSIb3
DQEBAQUAA4IBDwAwggEKAoIBAQDhmEut0jSr9bkpLDNgG+hPLcvns9Ikj3EqPVul
HRrtjgNeNX4v/8Abdt97Ge/m1T0l7xfQnzcwhyC49xb+9rDG4pozqOaKTsRjKsNM
rBeDJ5GrkuOOAl4v+bTiVAn41cOdN7C6ZE7XWR9U10eu1DqlwvHUAdeCPtOnVHkV
/vhBo/GhuBlZNOHa5IfGso9NG79D7An43/Y3065JrMotJ9t1WyVuEThIVdvIqpwH
RCqjxYa3sSS0+PRB1uqLFSaI111PesPg3qrL4E6GsXiB9Xp+SMBK0u9ap+39+ME+
zWpPzSYFrg9Tycqx0wlSmP6wakIVMiqZCUSwK/8eYwDkzg4NAgMBAAGjezB5MAkG
A1UdEwQCMAAwLAYJYIZIAYb4QgENBB8WHU9wZW5TU0wgR2VuZXJhdGVkIENlcnRp
ZmljYXRlMB0GA1UdDgQWBBRYBRmQv3Hd68ky51sbhUEACW/J4zAfBgNVHSMEGDAW
gBRpj3Bv45Jora8I3LxK90kVy7cPQDANBgkqhkiG9w0BAQsFAAOCAQEAmd5+CrP0
oNn3U7h6BFAEYirOb23n4/BrxuNOUgQ3krqCnAM3208uZYtRrK0o+fP1Sw7nuY3i
xJBapL+P8HQtKuC7lEYAe7U4SfvDbbBmwUXW4ZZmiOAdfs3OFi6PpqtFsXUgT9gz
rBN9R1DolEsTckkSEUJp0p9rVSLmYlMBMO6YgGK+k/ereHmbeXMH1zFcW7zklGa5
lhDZfRBVsGXIVB54qANwOOld4K64+cvGdPHWQW/AW+9YSIJKAvACShyoLVm35FXe
NpJ3qGaG2E/mYGCfFpHSl0dNoSZpPEMLDx5vZNsLgPJYVqaT4x5iVfMhhXSt5pez
BGuO2p1Q74J+ug==
-----END CERTIFICATE-----
