Certificate:
    Data:
        Version: 3 (0x2)
        Serial Number: 14 (0xe)
        Signature Algorithm: sha256WithRSAEncryption
        Issuer: C=CN, ST=SH, O=ECNU, CN=CA
        Validity
            Not Before: Apr 19 10:55:28 2021 GMT
            Not After : Apr 19 10:55:28 2022 GMT
        Subject: C=CN, ST=SH, O=ECNU, CN=DASE23
        Subject Public Key Info:
            Public Key Algorithm: rsaEncryption
                RSA Public-Key: (2048 bit)
                Modulus:
                    00:c0:46:ae:2f:52:2d:94:06:e2:38:02:c8:d9:c6:
                    04:c1:ef:5c:94:d8:23:13:c6:85:ef:0d:bb:06:16:
                    e6:d8:3b:3b:6a:dd:82:c7:1e:74:1b:a5:07:4f:dd:
                    8b:75:9a:6f:ff:a1:13:73:4e:66:1e:24:c3:a4:60:
                    ec:c9:c3:5d:e2:77:2e:aa:8c:de:75:03:9e:61:9b:
                    bd:74:64:48:29:96:4e:99:f2:b5:40:38:3e:a8:96:
                    17:ff:f5:1e:84:5c:53:b4:40:28:d3:1c:58:07:d7:
                    40:79:be:b1:90:04:6d:f2:7f:38:87:6b:b6:53:c2:
                    74:c4:35:38:d6:ca:dd:a8:21:83:31:2c:c9:b5:e6:
                    3f:c3:0b:01:07:da:e8:25:8f:cd:7e:2f:63:a2:2a:
                    c3:db:82:5c:e6:84:63:90:e0:64:76:10:69:57:ae:
                    e8:ba:ad:58:54:78:c0:ee:c2:c8:f9:2b:ee:3f:a5:
                    bf:eb:3b:37:ee:03:2a:40:2f:d9:07:04:12:78:d6:
                    64:93:62:b4:0f:80:9a:17:6e:84:39:30:5d:f8:61:
                    22:63:8e:a4:95:8f:b1:4f:39:16:de:a1:38:4b:e5:
                    98:a5:cf:e4:09:2c:c4:3e:2b:72:e0:ed:db:0b:92:
                    83:99:ad:63:39:d3:be:1d:72:b0:02:a5:b6:f7:76:
                    43:cb
                Exponent: 65537 (0x10001)
        X509v3 extensions:
            X509v3 Basic Constraints: 
                CA:FALSE
            Netscape Comment: 
                OpenSSL Generated Certificate
            X509v3 Subject Key Identifier: 
                B2:52:71:54:3F:73:09:A1:93:31:55:B4:D0:82:A8:6C:2B:7F:BC:85
            X509v3 Authority Key Identifier: 
                keyid:69:8F:70:6F:E3:92:68:AD:AF:08:DC:BC:4A:F7:49:15:CB:B7:0F:40

    Signature Algorithm: sha256WithRSAEncryption
         93:52:92:a5:04:23:f8:6a:07:5f:9f:b2:3c:1a:fa:b1:7b:cd:
         16:17:73:41:2c:61:50:32:f8:5d:15:bf:35:32:ab:80:72:d7:
         79:e8:2c:5a:3d:2b:f0:da:26:35:17:8d:33:7e:f3:4f:b7:fb:
         8d:2c:b1:1a:46:55:ed:1e:84:6c:eb:19:78:71:07:fb:54:65:
         4c:26:08:84:fa:3e:08:04:c8:e6:23:e5:b9:13:28:7c:53:f3:
         0c:a3:45:57:e2:cc:a4:92:6f:81:11:c8:cf:43:fc:1d:50:24:
         2a:f0:bb:4a:6a:52:fc:79:fc:ef:a7:fc:b6:73:47:5a:b3:08:
         69:19:29:2c:bb:0b:ae:23:f5:01:2e:4d:42:c1:05:9f:0e:86:
         14:4f:5c:04:80:96:4a:8e:dd:0d:7d:3c:a7:e7:53:fe:35:06:
         6f:36:b2:d1:10:9a:bb:83:af:3e:3f:2c:10:5c:4d:ec:b3:11:
         09:cb:23:ed:15:08:c0:4d:90:00:40:40:be:9f:1d:44:7c:0d:
         86:83:2b:00:6e:4b:ce:8e:2b:bf:2c:1f:21:59:7f:ac:c4:aa:
         05:7e:85:0e:e4:c4:1b:9e:63:13:33:79:8d:8d:ca:e6:e1:15:
         ce:f2:88:0c:a4:26:67:48:7e:a1:c7:b1:b3:67:c8:cf:14:04:
         ea:c9:a0:68
-----BEGIN CERTIFICATE-----
MIIDZjCCAk6gAwIBAgIBDjANBgkqhkiG9w0BAQsFADA2MQswCQYDVQQGEwJDTjEL
MAkGA1UECAwCU0gxDTALBgNVBAoMBEVDTlUxCzAJBgNVBAMMAkNBMB4XDTIxMDQx
OTEwNTUyOFoXDTIyMDQxOTEwNTUyOFowOjELMAkGA1UEBhMCQ04xCzAJBgNVBAgM
AlNIMQ0wCwYDVQQKDARFQ05VMQ8wDQYDVQQDDAZEQVNFMjMwggEiMA0GCSqGSIb3
DQEBAQUAA4IBDwAwggEKAoIBAQDARq4vUi2UBuI4AsjZxgTB71yU2CMTxoXvDbsG
FubYOztq3YLHHnQbpQdP3Yt1mm//oRNzTmYeJMOkYOzJw13idy6qjN51A55hm710
ZEgplk6Z8rVAOD6olhf/9R6EXFO0QCjTHFgH10B5vrGQBG3yfziHa7ZTwnTENTjW
yt2oIYMxLMm15j/DCwEH2uglj81+L2OiKsPbglzmhGOQ4GR2EGlXrui6rVhUeMDu
wsj5K+4/pb/rOzfuAypAL9kHBBJ41mSTYrQPgJoXboQ5MF34YSJjjqSVj7FPORbe
oThL5Zilz+QJLMQ+K3Lg7dsLkoOZrWM5074dcrACpbb3dkPLAgMBAAGjezB5MAkG
A1UdEwQCMAAwLAYJYIZIAYb4QgENBB8WHU9wZW5TU0wgR2VuZXJhdGVkIENlcnRp
ZmljYXRlMB0GA1UdDgQWBBSyUnFUP3MJoZMxVbTQgqhsK3+8hTAfBgNVHSMEGDAW
gBRpj3Bv45Jora8I3LxK90kVy7cPQDANBgkqhkiG9w0BAQsFAAOCAQEAk1KSpQQj
+GoHX5+yPBr6sXvNFhdzQSxhUDL4XRW/NTKrgHLXeegsWj0r8NomNReNM37zT7f7
jSyxGkZV7R6EbOsZeHEH+1RlTCYIhPo+CATI5iPluRMofFPzDKNFV+LMpJJvgRHI
z0P8HVAkKvC7SmpS/Hn876f8tnNHWrMIaRkpLLsLriP1AS5NQsEFnw6GFE9cBICW
So7dDX08p+dT/jUGbzay0RCau4OvPj8sEFxN7LMRCcsj7RUIwE2QAEBAvp8dRHwN
hoMrAG5Lzo4rvywfIVl/rMSqBX6FDuTEG55jEzN5jY3K5uEVzvKIDKQmZ0h+ocex
s2fIzxQE6smgaA==
-----END CERTIFICATE-----
