Certificate:
    Data:
        Version: 3 (0x2)
        Serial Number: 15 (0xf)
        Signature Algorithm: sha256WithRSAEncryption
        Issuer: C=CN, ST=SH, O=ECNU, CN=CA
        Validity
            Not Before: Apr 19 10:56:40 2021 GMT
            Not After : Apr 19 10:56:40 2022 GMT
        Subject: C=CN, ST=SH, O=ECNU, CN=DASE115
        Subject Public Key Info:
            Public Key Algorithm: rsaEncryption
                RSA Public-Key: (2048 bit)
                Modulus:
                    00:b0:d3:08:b3:96:de:ea:53:a6:97:99:fd:eb:4c:
                    d4:6e:5f:7f:5c:fd:63:3f:d6:8f:76:f1:35:42:4f:
                    10:23:9c:19:5c:54:40:21:81:95:4a:ec:78:f4:63:
                    7f:9c:89:d0:49:97:67:5a:df:6d:a4:f2:97:50:3d:
                    81:c6:e2:f2:14:2c:fb:7c:21:11:80:f7:52:b2:15:
                    a2:74:7b:08:0c:4b:a6:e6:f0:64:5e:e2:da:a6:e1:
                    f2:0f:da:c0:99:79:94:ca:ce:29:9e:14:52:cb:e9:
                    d1:67:77:2b:4d:f0:0d:ef:14:93:61:ff:05:08:1a:
                    95:4d:85:4c:56:49:82:9e:a6:7e:55:2c:dc:6c:06:
                    ae:bd:97:de:65:86:43:a4:84:3c:0b:79:78:10:17:
                    ea:f2:6c:63:9b:4a:e3:1a:be:2b:aa:49:71:11:22:
                    6b:c0:10:40:79:3f:07:e3:28:7b:10:0a:43:b9:ac:
                    c2:b9:b6:79:94:49:1d:fe:90:21:fd:fc:47:43:af:
                    d7:bd:0c:9d:5c:04:8d:34:ca:b7:e3:69:d9:b0:39:
                    44:bb:af:09:3d:0a:cb:0a:89:d2:3b:af:5e:69:8d:
                    34:73:92:6c:a1:1a:57:0f:b8:20:ad:58:5d:c7:c7:
                    3a:36:94:42:e7:5d:b8:1b:b5:15:62:56:05:7c:21:
                    7b:09
                Exponent: 65537 (0x10001)
        X509v3 extensions:
            X509v3 Basic Constraints: 
                CA:FALSE
            Netscape Comment: 
                OpenSSL Generated Certificate
            X509v3 Subject Key Identifier: 
                17:85:08:1C:74:5C:26:22:98:56:62:46:D6:7E:B2:3B:45:2F:33:0E
            X509v3 Authority Key Identifier: 
                keyid:69:8F:70:6F:E3:92:68:AD:AF:08:DC:BC:4A:F7:49:15:CB:B7:0F:40

    Signature Algorithm: sha256WithRSAEncryption
         47:7f:40:00:04:25:44:c5:e3:fd:89:80:82:d7:43:16:10:53:
         3c:92:d8:9a:e2:12:ce:2a:55:55:d2:8e:4f:54:4b:6c:fa:ce:
         e2:60:d7:6d:76:83:71:63:bd:83:54:3b:df:2a:27:c9:06:c6:
         4f:f3:e0:3f:c7:04:cb:5f:6b:0f:97:cd:c7:2e:4b:51:25:7a:
         39:b9:ce:6b:ec:c4:7c:40:a9:1d:b6:be:16:53:b3:3b:4f:20:
         e1:ab:63:e3:7c:12:b7:9f:5a:8f:dd:48:8d:21:6c:74:db:a9:
         9c:e6:29:ae:6f:97:20:7e:a2:52:5c:bd:64:4e:2e:90:92:be:
         2d:fb:2b:44:ac:23:7f:73:26:06:79:ae:78:7e:86:6c:37:34:
         ea:e2:84:0a:bb:0c:87:29:56:06:e1:6a:f2:2f:92:12:e4:98:
         4c:af:3d:95:72:f2:01:e9:6e:4a:77:79:11:6d:16:95:47:71:
         88:63:c2:bc:55:7e:7e:25:ae:cf:a2:db:4c:6d:f2:c7:79:1a:
         71:ad:9b:8e:3b:65:0a:f9:79:b8:aa:ce:32:5d:0b:6c:1b:ae:
         36:12:a7:09:65:cd:c2:82:73:fb:bf:e1:df:18:98:c5:ae:d4:
         f4:f7:a3:9e:3f:4e:73:2d:8e:55:8a:09:02:30:ee:14:65:96:
         30:c4:44:ad
-----BEGIN CERTIFICATE-----
MIIDZzCCAk+gAwIBAgIBDzANBgkqhkiG9w0BAQsFADA2MQswCQYDVQQGEwJDTjEL
MAkGA1UECAwCU0gxDTALBgNVBAoMBEVDTlUxCzAJBgNVBAMMAkNBMB4XDTIxMDQx
OTEwNTY0MFoXDTIyMDQxOTEwNTY0MFowOzELMAkGA1UEBhMCQ04xCzAJBgNVBAgM
AlNIMQ0wCwYDVQQKDARFQ05VMRAwDgYDVQQDDAdEQVNFMTE1MIIBIjANBgkqhkiG
9w0BAQEFAAOCAQ8AMIIBCgKCAQEAsNMIs5be6lOml5n960zUbl9/XP1jP9aPdvE1
Qk8QI5wZXFRAIYGVSux49GN/nInQSZdnWt9tpPKXUD2BxuLyFCz7fCERgPdSshWi
dHsIDEum5vBkXuLapuHyD9rAmXmUys4pnhRSy+nRZ3crTfAN7xSTYf8FCBqVTYVM
VkmCnqZ+VSzcbAauvZfeZYZDpIQ8C3l4EBfq8mxjm0rjGr4rqklxESJrwBBAeT8H
4yh7EApDuazCubZ5lEkd/pAh/fxHQ6/XvQydXASNNMq342nZsDlEu68JPQrLConS
O69eaY00c5JsoRpXD7ggrVhdx8c6NpRC5124G7UVYlYFfCF7CQIDAQABo3sweTAJ
BgNVHRMEAjAAMCwGCWCGSAGG+EIBDQQfFh1PcGVuU1NMIEdlbmVyYXRlZCBDZXJ0
aWZpY2F0ZTAdBgNVHQ4EFgQUF4UIHHRcJiKYVmJG1n6yO0UvMw4wHwYDVR0jBBgw
FoAUaY9wb+OSaK2vCNy8SvdJFcu3D0AwDQYJKoZIhvcNAQELBQADggEBAEd/QAAE
JUTF4/2JgILXQxYQUzyS2JriEs4qVVXSjk9US2z6zuJg1212g3FjvYNUO98qJ8kG
xk/z4D/HBMtfaw+XzccuS1Elejm5zmvsxHxAqR22vhZTsztPIOGrY+N8ErefWo/d
SI0hbHTbqZzmKa5vlyB+olJcvWROLpCSvi37K0SsI39zJgZ5rnh+hmw3NOrihAq7
DIcpVgbhavIvkhLkmEyvPZVy8gHpbkp3eRFtFpVHcYhjwrxVfn4lrs+i20xt8sd5
GnGtm447ZQr5ebiqzjJdC2wbrjYSpwllzcKCc/u/4d8YmMWu1PT3o54/TnMtjlWK
CQIw7hRlljDERK0=
-----END CERTIFICATE-----
