Certificate:
    Data:
        Version: 3 (0x2)
        Serial Number: 16 (0x10)
        Signature Algorithm: sha256WithRSAEncryption
        Issuer: C=CN, ST=SH, O=ECNU, CN=CA
        Validity
            Not Before: Apr 19 10:56:40 2021 GMT
            Not After : Apr 19 10:56:40 2022 GMT
        Subject: C=CN, ST=SH, O=ECNU, CN=DASE116
        Subject Public Key Info:
            Public Key Algorithm: rsaEncryption
                RSA Public-Key: (2048 bit)
                Modulus:
                    00:b0:d3:08:b3:96:de:ea:53:a6:97:99:fd:eb:4c:
                    d4:6e:5f:7f:5c:fd:63:3f:d6:8f:76:f1:35:42:4f:
                    10:23:9c:19:5c:54:40:21:81:95:4a:ec:78:f4:63:
                    7f:9c:89:d0:49:97:67:5a:df:6d:a4:f2:97:50:3d:
                    81:c6:e2:f2:14:2c:fb:7c:21:11:80:f7:52:b2:15:
                    a2:74:7b:08:0c:4b:a6:e6:f0:64:5e:e2:da:a6:e1:
                    f2:0f:da:c0:99:79:94:ca:ce:29:9e:14:52:cb:e9:
                    d1:67:77:2b:4d:f0:0d:ef:14:93:61:ff:05:08:1a:
                    95:4d:85:4c:56:49:82:9e:a6:7e:55:2c:dc:6c:06:
                    ae:bd:97:de:65:86:43:a4:84:3c:0b:79:78:10:17:
                    ea:f2:6c:63:9b:4a:e3:1a:be:2b:aa:49:71:11:22:
                    6b:c0:10:40:79:3f:07:e3:28:7b:10:0a:43:b9:ac:
                    c2:b9:b6:79:94:49:1d:fe:90:21:fd:fc:47:43:af:
                    d7:bd:0c:9d:5c:04:8d:34:ca:b7:e3:69:d9:b0:39:
                    44:bb:af:09:3d:0a:cb:0a:89:d2:3b:af:5e:69:8d:
                    34:73:92:6c:a1:1a:57:0f:b8:20:ad:58:5d:c7:c7:
                    3a:36:94:42:e7:5d:b8:1b:b5:15:62:56:05:7c:21:
                    7b:09
                Exponent: 65537 (0x10001)
        X509v3 extensions:
            X509v3 Basic Constraints: 
                CA:FALSE
            Netscape Comment: 
                OpenSSL Generated Certificate
            X509v3 Subject Key Identifier: 
                17:85:08:1C:74:5C:26:22:98:56:62:46:D6:7E:B2:3B:45:2F:33:0E
            X509v3 Authority Key Identifier: 
                keyid:69:8F:70:6F:E3:92:68:AD:AF:08:DC:BC:4A:F7:49:15:CB:B7:0F:40

    Signature Algorithm: sha256WithRSAEncryption
         60:b0:53:72:39:38:9b:ea:a1:9c:1c:38:a0:f2:47:44:af:ea:
         8d:8c:43:e3:45:1a:4c:72:e6:a2:d0:e5:35:80:98:6f:cc:29:
         1f:f1:eb:98:de:08:38:9f:18:29:5c:47:46:d2:23:ef:fe:39:
         d6:fa:ad:be:5a:66:21:41:a3:b3:47:ee:3b:3a:6d:cd:a8:c3:
         a5:cb:15:79:57:1d:bd:4d:87:30:e1:89:dd:68:f5:5b:f4:2a:
         69:52:af:8a:c0:52:48:83:7d:7a:ee:e1:f1:39:46:6a:20:9c:
         89:7b:f9:c0:37:e6:58:56:dd:2f:5c:10:6d:66:98:63:ac:de:
         19:56:61:33:47:39:92:65:e4:12:d2:9a:ed:ca:93:7c:a9:72:
         c2:3e:16:76:18:c7:dd:1d:2d:fc:2d:d5:c8:d6:26:1f:c8:a3:
         c0:f4:7f:d7:4f:dd:04:9c:c3:cd:4f:42:f7:83:38:00:58:56:
         33:04:bd:24:13:b7:99:32:3c:14:42:72:f9:ad:99:94:da:80:
         02:74:f4:b5:24:2b:b7:b7:b1:37:ba:53:93:3c:60:dc:a7:67:
         6c:02:33:1c:c7:84:2c:41:40:82:76:d0:c0:5f:76:c5:62:9f:
         f4:2c:c7:60:ea:9a:dd:dc:73:90:fb:da:ef:ad:26:5d:e1:88:
         62:5c:69:83
-----BEGIN CERTIFICATE-----
MIIDZzCCAk+gAwIBAgIBEDANBgkqhkiG9w0BAQsFADA2MQswCQYDVQQGEwJDTjEL
MAkGA1UECAwCU0gxDTALBgNVBAoMBEVDTlUxCzAJBgNVBAMMAkNBMB4XDTIxMDQx
OTEwNTY0MFoXDTIyMDQxOTEwNTY0MFowOzELMAkGA1UEBhMCQ04xCzAJBgNVBAgM
AlNIMQ0wCwYDVQQKDARFQ05VMRAwDgYDVQQDDAdEQVNFMTE2MIIBIjANBgkqhkiG
9w0BAQEFAAOCAQ8AMIIBCgKCAQEAsNMIs5be6lOml5n960zUbl9/XP1jP9aPdvE1
Qk8QI5wZXFRAIYGVSux49GN/nInQSZdnWt9tpPKXUD2BxuLyFCz7fCERgPdSshWi
dHsIDEum5vBkXuLapuHyD9rAmXmUys4pnhRSy+nRZ3crTfAN7xSTYf8FCBqVTYVM
VkmCnqZ+VSzcbAauvZfeZYZDpIQ8C3l4EBfq8mxjm0rjGr4rqklxESJrwBBAeT8H
4yh7EApDuazCubZ5lEkd/pAh/fxHQ6/XvQydXASNNMq342nZsDlEu68JPQrLConS
O69eaY00c5JsoRpXD7ggrVhdx8c6NpRC5124G7UVYlYFfCF7CQIDAQABo3sweTAJ
BgNVHRMEAjAAMCwGCWCGSAGG+EIBDQQfFh1PcGVuU1NMIEdlbmVyYXRlZCBDZXJ0
aWZpY2F0ZTAdBgNVHQ4EFgQUF4UIHHRcJiKYVmJG1n6yO0UvMw4wHwYDVR0jBBgw
FoAUaY9wb+OSaK2vCNy8SvdJFcu3D0AwDQYJKoZIhvcNAQELBQADggEBAGCwU3I5
OJvqoZwcOKDyR0Sv6o2MQ+NFGkxy5qLQ5TWAmG/MKR/x65jeCDifGClcR0bSI+/+
Odb6rb5aZiFBo7NH7js6bc2ow6XLFXlXHb1NhzDhid1o9Vv0KmlSr4rAUkiDfXru
4fE5RmognIl7+cA35lhW3S9cEG1mmGOs3hlWYTNHOZJl5BLSmu3Kk3ypcsI+FnYY
x90dLfwt1cjWJh/Io8D0f9dP3QScw81PQveDOABYVjMEvSQTt5kyPBRCcvmtmZTa
gAJ09LUkK7e3sTe6U5M8YNynZ2wCMxzHhCxBQIJ20MBfdsVin/Qsx2Dqmt3cc5D7
2u+tJl3hiGJcaYM=
-----END CERTIFICATE-----
