Certificate:
    Data:
        Version: 3 (0x2)
        Serial Number: 17 (0x11)
        Signature Algorithm: sha256WithRSAEncryption
        Issuer: C=CN, ST=SH, O=ECNU, CN=CA
        Validity
            Not Before: Apr 19 10:56:40 2021 GMT
            Not After : Apr 19 10:56:40 2022 GMT
        Subject: C=CN, ST=SH, O=ECNU, CN=DASE117
        Subject Public Key Info:
            Public Key Algorithm: rsaEncryption
                RSA Public-Key: (2048 bit)
                Modulus:
                    00:b0:d3:08:b3:96:de:ea:53:a6:97:99:fd:eb:4c:
                    d4:6e:5f:7f:5c:fd:63:3f:d6:8f:76:f1:35:42:4f:
                    10:23:9c:19:5c:54:40:21:81:95:4a:ec:78:f4:63:
                    7f:9c:89:d0:49:97:67:5a:df:6d:a4:f2:97:50:3d:
                    81:c6:e2:f2:14:2c:fb:7c:21:11:80:f7:52:b2:15:
                    a2:74:7b:08:0c:4b:a6:e6:f0:64:5e:e2:da:a6:e1:
                    f2:0f:da:c0:99:79:94:ca:ce:29:9e:14:52:cb:e9:
                    d1:67:77:2b:4d:f0:0d:ef:14:93:61:ff:05:08:1a:
                    95:4d:85:4c:56:49:82:9e:a6:7e:55:2c:dc:6c:06:
                    ae:bd:97:de:65:86:43:a4:84:3c:0b:79:78:10:17:
                    ea:f2:6c:63:9b:4a:e3:1a:be:2b:aa:49:71:11:22:
                    6b:c0:10:40:79:3f:07:e3:28:7b:10:0a:43:b9:ac:
                    c2:b9:b6:79:94:49:1d:fe:90:21:fd:fc:47:43:af:
                    d7:bd:0c:9d:5c:04:8d:34:ca:b7:e3:69:d9:b0:39:
                    44:bb:af:09:3d:0a:cb:0a:89:d2:3b:af:5e:69:8d:
                    34:73:92:6c:a1:1a:57:0f:b8:20:ad:58:5d:c7:c7:
                    3a:36:94:42:e7:5d:b8:1b:b5:15:62:56:05:7c:21:
                    7b:09
                Exponent: 65537 (0x10001)
        X509v3 extensions:
            X509v3 Basic Constraints: 
                CA:FALSE
            Netscape Comment: 
                OpenSSL Generated Certificate
            X509v3 Subject Key Identifier: 
                17:85:08:1C:74:5C:26:22:98:56:62:46:D6:7E:B2:3B:45:2F:33:0E
            X509v3 Authority Key Identifier: 
                keyid:69:8F:70:6F:E3:92:68:AD:AF:08:DC:BC:4A:F7:49:15:CB:B7:0F:40

    Signature Algorithm: sha256WithRSAEncryption
         9a:d2:df:63:69:d4:ba:6b:e6:b4:57:67:df:74:bc:45:da:53:
         f6:13:38:29:ab:4c:e7:f0:28:09:45:6a:42:30:4d:be:d8:32:
         de:98:a8:fc:92:93:dc:a0:14:67:0b:45:37:85:55:35:ef:7e:
         46:8e:01:64:38:4b:ee:77:87:b4:19:4a:fd:f5:4a:b1:bb:79:
         61:ee:0d:a3:5a:62:83:de:d2:4f:57:9f:a7:73:63:68:3e:f7:
         f0:ae:96:d9:a5:02:ce:92:1d:27:e4:9b:8f:1b:8c:4d:3c:83:
         ce:97:68:c8:d0:84:28:e2:87:23:f3:03:7d:55:b4:db:ca:02:
         de:4e:90:8d:4f:8b:93:02:67:23:87:84:28:ef:74:72:dd:88:
         23:7f:38:3b:6d:a3:7a:54:41:d1:d7:a0:71:f9:1a:ac:1c:4e:
         1f:0e:7a:4f:cc:5d:04:e0:4a:87:2b:4f:d3:fd:c8:16:d2:41:
         91:f0:e8:c5:a6:e4:37:f5:e5:50:67:aa:15:ac:7f:e2:a0:16:
         c8:92:83:10:68:ea:c5:aa:5d:e4:fc:89:56:d2:30:10:3d:f9:
         90:c0:c8:d3:a7:76:10:73:fa:b6:04:2b:e3:a2:50:80:b1:90:
         cf:64:56:88:59:a6:17:34:42:46:10:a0:5d:ac:68:42:47:df:
         fe:74:26:1f
-----BEGIN CERTIFICATE-----
MIIDZzCCAk+gAwIBAgIBETANBgkqhkiG9w0BAQsFADA2MQswCQYDVQQGEwJDTjEL
MAkGA1UECAwCU0gxDTALBgNVBAoMBEVDTlUxCzAJBgNVBAMMAkNBMB4XDTIxMDQx
OTEwNTY0MFoXDTIyMDQxOTEwNTY0MFowOzELMAkGA1UEBhMCQ04xCzAJBgNVBAgM
AlNIMQ0wCwYDVQQKDARFQ05VMRAwDgYDVQQDDAdEQVNFMTE3MIIBIjANBgkqhkiG
9w0BAQEFAAOCAQ8AMIIBCgKCAQEAsNMIs5be6lOml5n960zUbl9/XP1jP9aPdvE1
Qk8QI5wZXFRAIYGVSux49GN/nInQSZdnWt9tpPKXUD2BxuLyFCz7fCERgPdSshWi
dHsIDEum5vBkXuLapuHyD9rAmXmUys4pnhRSy+nRZ3crTfAN7xSTYf8FCBqVTYVM
VkmCnqZ+VSzcbAauvZfeZYZDpIQ8C3l4EBfq8mxjm0rjGr4rqklxESJrwBBAeT8H
4yh7EApDuazCubZ5lEkd/pAh/fxHQ6/XvQydXASNNMq342nZsDlEu68JPQrLConS
O69eaY00c5JsoRpXD7ggrVhdx8c6NpRC5124G7UVYlYFfCF7CQIDAQABo3sweTAJ
BgNVHRMEAjAAMCwGCWCGSAGG+EIBDQQfFh1PcGVuU1NMIEdlbmVyYXRlZCBDZXJ0
aWZpY2F0ZTAdBgNVHQ4EFgQUF4UIHHRcJiKYVmJG1n6yO0UvMw4wHwYDVR0jBBgw
FoAUaY9wb+OSaK2vCNy8SvdJFcu3D0AwDQYJKoZIhvcNAQELBQADggEBAJrS32Np
1Lpr5rRXZ990vEXaU/YTOCmrTOfwKAlFakIwTb7YMt6YqPySk9ygFGcLRTeFVTXv
fkaOAWQ4S+53h7QZSv31SrG7eWHuDaNaYoPe0k9Xn6dzY2g+9/CultmlAs6SHSfk
m48bjE08g86XaMjQhCjihyPzA31VtNvKAt5OkI1Pi5MCZyOHhCjvdHLdiCN/ODtt
o3pUQdHXoHH5GqwcTh8Oek/MXQTgSocrT9P9yBbSQZHw6MWm5Df15VBnqhWsf+Kg
FsiSgxBo6sWqXeT8iVbSMBA9+ZDAyNOndhBz+rYEK+OiUICxkM9kVohZphc0QkYQ
oF2saEJH3/50Jh8=
-----END CERTIFICATE-----
