Certificate:
    Data:
        Version: 3 (0x2)
        Serial Number: 18 (0x12)
        Signature Algorithm: sha256WithRSAEncryption
        Issuer: C=CN, ST=SH, O=ECNU, CN=CA
        Validity
            Not Before: Apr 19 10:56:40 2021 GMT
            Not After : Apr 19 10:56:40 2022 GMT
        Subject: C=CN, ST=SH, O=ECNU, CN=DASE118
        Subject Public Key Info:
            Public Key Algorithm: rsaEncryption
                RSA Public-Key: (2048 bit)
                Modulus:
                    00:b0:d3:08:b3:96:de:ea:53:a6:97:99:fd:eb:4c:
                    d4:6e:5f:7f:5c:fd:63:3f:d6:8f:76:f1:35:42:4f:
                    10:23:9c:19:5c:54:40:21:81:95:4a:ec:78:f4:63:
                    7f:9c:89:d0:49:97:67:5a:df:6d:a4:f2:97:50:3d:
                    81:c6:e2:f2:14:2c:fb:7c:21:11:80:f7:52:b2:15:
                    a2:74:7b:08:0c:4b:a6:e6:f0:64:5e:e2:da:a6:e1:
                    f2:0f:da:c0:99:79:94:ca:ce:29:9e:14:52:cb:e9:
                    d1:67:77:2b:4d:f0:0d:ef:14:93:61:ff:05:08:1a:
                    95:4d:85:4c:56:49:82:9e:a6:7e:55:2c:dc:6c:06:
                    ae:bd:97:de:65:86:43:a4:84:3c:0b:79:78:10:17:
                    ea:f2:6c:63:9b:4a:e3:1a:be:2b:aa:49:71:11:22:
                    6b:c0:10:40:79:3f:07:e3:28:7b:10:0a:43:b9:ac:
                    c2:b9:b6:79:94:49:1d:fe:90:21:fd:fc:47:43:af:
                    d7:bd:0c:9d:5c:04:8d:34:ca:b7:e3:69:d9:b0:39:
                    44:bb:af:09:3d:0a:cb:0a:89:d2:3b:af:5e:69:8d:
                    34:73:92:6c:a1:1a:57:0f:b8:20:ad:58:5d:c7:c7:
                    3a:36:94:42:e7:5d:b8:1b:b5:15:62:56:05:7c:21:
                    7b:09
                Exponent: 65537 (0x10001)
        X509v3 extensions:
            X509v3 Basic Constraints: 
                CA:FALSE
            Netscape Comment: 
                OpenSSL Generated Certificate
            X509v3 Subject Key Identifier: 
                17:85:08:1C:74:5C:26:22:98:56:62:46:D6:7E:B2:3B:45:2F:33:0E
            X509v3 Authority Key Identifier: 
                keyid:69:8F:70:6F:E3:92:68:AD:AF:08:DC:BC:4A:F7:49:15:CB:B7:0F:40

    Signature Algorithm: sha256WithRSAEncryption
         7a:e3:8b:0c:5f:af:c0:6f:15:20:d4:ab:e1:de:4a:04:47:f2:
         47:0e:bb:5b:c8:ce:5d:9a:f0:81:44:1f:13:9e:ae:15:7e:f8:
         cc:ef:f1:8e:29:2b:18:18:5a:8f:97:2d:07:0a:4f:80:28:e6:
         1b:06:ec:06:76:1e:47:81:ba:26:59:4e:45:fd:70:50:54:eb:
         05:5b:dc:a1:8d:54:41:ef:a9:d7:65:68:e0:80:f9:1c:2a:b2:
         66:b3:96:82:79:ca:12:29:d5:bf:d3:7b:0e:29:a3:00:bc:86:
         91:1f:e1:f1:06:9c:3e:65:d7:1f:16:c5:45:4f:51:69:3e:cc:
         cf:da:f3:7e:a6:29:35:63:e9:04:5c:f3:e8:f5:9f:4d:35:dd:
         0a:e5:8f:55:54:10:ab:2c:f6:55:28:ba:52:dd:ae:d2:80:9a:
         44:ff:87:80:a2:05:e1:97:1b:cc:73:f4:57:80:0c:2e:be:1c:
         92:7a:40:9a:78:7c:f0:25:08:12:f8:79:fd:c9:8c:09:9b:de:
         d8:87:8b:69:e6:aa:3e:96:e2:30:45:bd:f6:34:aa:8a:f8:93:
         95:b5:c7:47:a9:a6:b8:b1:30:1d:f3:47:48:30:70:4e:62:66:
         fa:19:a5:dc:d1:1f:4a:f2:b1:8a:ff:b9:4a:1e:25:06:f0:a3:
         95:80:79:a0
-----BEGIN CERTIFICATE-----
MIIDZzCCAk+gAwIBAgIBEjANBgkqhkiG9w0BAQsFADA2MQswCQYDVQQGEwJDTjEL
MAkGA1UECAwCU0gxDTALBgNVBAoMBEVDTlUxCzAJBgNVBAMMAkNBMB4XDTIxMDQx
OTEwNTY0MFoXDTIyMDQxOTEwNTY0MFowOzELMAkGA1UEBhMCQ04xCzAJBgNVBAgM
AlNIMQ0wCwYDVQQKDARFQ05VMRAwDgYDVQQDDAdEQVNFMTE4MIIBIjANBgkqhkiG
9w0BAQEFAAOCAQ8AMIIBCgKCAQEAsNMIs5be6lOml5n960zUbl9/XP1jP9aPdvE1
Qk8QI5wZXFRAIYGVSux49GN/nInQSZdnWt9tpPKXUD2BxuLyFCz7fCERgPdSshWi
dHsIDEum5vBkXuLapuHyD9rAmXmUys4pnhRSy+nRZ3crTfAN7xSTYf8FCBqVTYVM
VkmCnqZ+VSzcbAauvZfeZYZDpIQ8C3l4EBfq8mxjm0rjGr4rqklxESJrwBBAeT8H
4yh7EApDuazCubZ5lEkd/pAh/fxHQ6/XvQydXASNNMq342nZsDlEu68JPQrLConS
O69eaY00c5JsoRpXD7ggrVhdx8c6NpRC5124G7UVYlYFfCF7CQIDAQABo3sweTAJ
BgNVHRMEAjAAMCwGCWCGSAGG+EIBDQQfFh1PcGVuU1NMIEdlbmVyYXRlZCBDZXJ0
aWZpY2F0ZTAdBgNVHQ4EFgQUF4UIHHRcJiKYVmJG1n6yO0UvMw4wHwYDVR0jBBgw
FoAUaY9wb+OSaK2vCNy8SvdJFcu3D0AwDQYJKoZIhvcNAQELBQADggEBAHrjiwxf
r8BvFSDUq+HeSgRH8kcOu1vIzl2a8IFEHxOerhV++Mzv8Y4pKxgYWo+XLQcKT4Ao
5hsG7AZ2HkeBuiZZTkX9cFBU6wVb3KGNVEHvqddlaOCA+RwqsmazloJ5yhIp1b/T
ew4powC8hpEf4fEGnD5l1x8WxUVPUWk+zM/a836mKTVj6QRc8+j1n0013Qrlj1VU
EKss9lUoulLdrtKAmkT/h4CiBeGXG8xz9FeADC6+HJJ6QJp4fPAlCBL4ef3JjAmb
3tiHi2nmqj6W4jBFvfY0qor4k5W1x0epprixMB3zR0gwcE5iZvoZpdzRH0rysYr/
uUoeJQbwo5WAeaA=
-----END CERTIFICATE-----
