Certificate:
    Data:
        Version: 3 (0x2)
        Serial Number: 19 (0x13)
        Signature Algorithm: sha256WithRSAEncryption
        Issuer: C=CN, ST=SH, O=ECNU, CN=CA
        Validity
            Not Before: Apr 19 10:56:40 2021 GMT
            Not After : Apr 19 10:56:40 2022 GMT
        Subject: C=CN, ST=SH, O=ECNU, CN=DASE119
        Subject Public Key Info:
            Public Key Algorithm: rsaEncryption
                RSA Public-Key: (2048 bit)
                Modulus:
                    00:b0:d3:08:b3:96:de:ea:53:a6:97:99:fd:eb:4c:
                    d4:6e:5f:7f:5c:fd:63:3f:d6:8f:76:f1:35:42:4f:
                    10:23:9c:19:5c:54:40:21:81:95:4a:ec:78:f4:63:
                    7f:9c:89:d0:49:97:67:5a:df:6d:a4:f2:97:50:3d:
                    81:c6:e2:f2:14:2c:fb:7c:21:11:80:f7:52:b2:15:
                    a2:74:7b:08:0c:4b:a6:e6:f0:64:5e:e2:da:a6:e1:
                    f2:0f:da:c0:99:79:94:ca:ce:29:9e:14:52:cb:e9:
                    d1:67:77:2b:4d:f0:0d:ef:14:93:61:ff:05:08:1a:
                    95:4d:85:4c:56:49:82:9e:a6:7e:55:2c:dc:6c:06:
                    ae:bd:97:de:65:86:43:a4:84:3c:0b:79:78:10:17:
                    ea:f2:6c:63:9b:4a:e3:1a:be:2b:aa:49:71:11:22:
                    6b:c0:10:40:79:3f:07:e3:28:7b:10:0a:43:b9:ac:
                    c2:b9:b6:79:94:49:1d:fe:90:21:fd:fc:47:43:af:
                    d7:bd:0c:9d:5c:04:8d:34:ca:b7:e3:69:d9:b0:39:
                    44:bb:af:09:3d:0a:cb:0a:89:d2:3b:af:5e:69:8d:
                    34:73:92:6c:a1:1a:57:0f:b8:20:ad:58:5d:c7:c7:
                    3a:36:94:42:e7:5d:b8:1b:b5:15:62:56:05:7c:21:
                    7b:09
                Exponent: 65537 (0x10001)
        X509v3 extensions:
            X509v3 Basic Constraints: 
                CA:FALSE
            Netscape Comment: 
                OpenSSL Generated Certificate
            X509v3 Subject Key Identifier: 
                17:85:08:1C:74:5C:26:22:98:56:62:46:D6:7E:B2:3B:45:2F:33:0E
            X509v3 Authority Key Identifier: 
                keyid:69:8F:70:6F:E3:92:68:AD:AF:08:DC:BC:4A:F7:49:15:CB:B7:0F:40

    Signature Algorithm: sha256WithRSAEncryption
         6e:e0:b6:a5:ba:6c:4b:f7:ce:b5:94:8a:b8:64:5b:ab:93:50:
         7b:9f:a6:2d:f2:38:4a:9d:0f:b2:b2:76:67:b2:aa:d1:f0:20:
         e1:2b:81:3d:0f:a5:0f:51:f1:b8:a5:87:44:2f:df:3c:4f:ea:
         5c:4a:cd:aa:bd:01:e9:05:0c:ec:d0:12:23:22:b2:0a:14:1b:
         d7:11:ca:82:68:45:39:3e:b3:da:02:2d:d2:d1:36:25:c8:07:
         13:70:01:17:e1:5a:db:42:45:a5:3c:b5:af:a3:06:eb:e3:2b:
         5e:20:b5:ce:36:c1:6e:b9:ef:34:5f:b9:4c:4d:3e:75:0d:40:
         76:72:23:7d:4f:ae:6f:dd:95:32:97:ef:ac:f3:da:0d:44:8c:
         56:22:d0:c9:f3:ad:09:34:ea:d4:24:8d:ec:68:b1:7c:26:43:
         fc:e9:43:c3:02:63:49:77:a3:d9:a7:15:f5:0d:38:f2:5d:ca:
         e2:28:f3:67:06:e4:51:16:a0:dd:5b:47:78:f3:a3:8b:70:da:
         cb:b2:6b:17:88:5d:65:a9:bd:e0:39:c8:36:65:96:da:cb:af:
         f5:52:97:13:99:7b:98:2d:03:03:7c:02:92:19:88:db:88:ea:
         62:40:87:77:b9:1c:6c:c8:d8:26:b5:3e:9a:d5:78:cc:d9:dd:
         f6:30:12:4b
-----BEGIN CERTIFICATE-----
MIIDZzCCAk+gAwIBAgIBEzANBgkqhkiG9w0BAQsFADA2MQswCQYDVQQGEwJDTjEL
MAkGA1UECAwCU0gxDTALBgNVBAoMBEVDTlUxCzAJBgNVBAMMAkNBMB4XDTIxMDQx
OTEwNTY0MFoXDTIyMDQxOTEwNTY0MFowOzELMAkGA1UEBhMCQ04xCzAJBgNVBAgM
AlNIMQ0wCwYDVQQKDARFQ05VMRAwDgYDVQQDDAdEQVNFMTE5MIIBIjANBgkqhkiG
9w0BAQEFAAOCAQ8AMIIBCgKCAQEAsNMIs5be6lOml5n960zUbl9/XP1jP9aPdvE1
Qk8QI5wZXFRAIYGVSux49GN/nInQSZdnWt9tpPKXUD2BxuLyFCz7fCERgPdSshWi
dHsIDEum5vBkXuLapuHyD9rAmXmUys4pnhRSy+nRZ3crTfAN7xSTYf8FCBqVTYVM
VkmCnqZ+VSzcbAauvZfeZYZDpIQ8C3l4EBfq8mxjm0rjGr4rqklxESJrwBBAeT8H
4yh7EApDuazCubZ5lEkd/pAh/fxHQ6/XvQydXASNNMq342nZsDlEu68JPQrLConS
O69eaY00c5JsoRpXD7ggrVhdx8c6NpRC5124G7UVYlYFfCF7CQIDAQABo3sweTAJ
BgNVHRMEAjAAMCwGCWCGSAGG+EIBDQQfFh1PcGVuU1NMIEdlbmVyYXRlZCBDZXJ0
aWZpY2F0ZTAdBgNVHQ4EFgQUF4UIHHRcJiKYVmJG1n6yO0UvMw4wHwYDVR0jBBgw
FoAUaY9wb+OSaK2vCNy8SvdJFcu3D0AwDQYJKoZIhvcNAQELBQADggEBAG7gtqW6
bEv3zrWUirhkW6uTUHufpi3yOEqdD7KydmeyqtHwIOErgT0PpQ9R8bilh0Qv3zxP
6lxKzaq9AekFDOzQEiMisgoUG9cRyoJoRTk+s9oCLdLRNiXIBxNwARfhWttCRaU8
ta+jBuvjK14gtc42wW657zRfuUxNPnUNQHZyI31Prm/dlTKX76zz2g1EjFYi0Mnz
rQk06tQkjexosXwmQ/zpQ8MCY0l3o9mnFfUNOPJdyuIo82cG5FEWoN1bR3jzo4tw
2suyaxeIXWWpveA5yDZlltrLr/VSlxOZe5gtAwN8ApIZiNuI6mJAh3e5HGzI2Ca1
PprVeMzZ3fYwEks=
-----END CERTIFICATE-----
