Certificate:
    Data:
        Version: 3 (0x2)
        Serial Number: 20 (0x14)
        Signature Algorithm: sha256WithRSAEncryption
        Issuer: C=CN, ST=SH, O=ECNU, CN=CA
        Validity
            Not Before: Apr 19 10:56:40 2021 GMT
            Not After : Apr 19 10:56:40 2022 GMT
        Subject: C=CN, ST=SH, O=ECNU, CN=DASE120
        Subject Public Key Info:
            Public Key Algorithm: rsaEncryption
                RSA Public-Key: (2048 bit)
                Modulus:
                    00:b0:d3:08:b3:96:de:ea:53:a6:97:99:fd:eb:4c:
                    d4:6e:5f:7f:5c:fd:63:3f:d6:8f:76:f1:35:42:4f:
                    10:23:9c:19:5c:54:40:21:81:95:4a:ec:78:f4:63:
                    7f:9c:89:d0:49:97:67:5a:df:6d:a4:f2:97:50:3d:
                    81:c6:e2:f2:14:2c:fb:7c:21:11:80:f7:52:b2:15:
                    a2:74:7b:08:0c:4b:a6:e6:f0:64:5e:e2:da:a6:e1:
                    f2:0f:da:c0:99:79:94:ca:ce:29:9e:14:52:cb:e9:
                    d1:67:77:2b:4d:f0:0d:ef:14:93:61:ff:05:08:1a:
                    95:4d:85:4c:56:49:82:9e:a6:7e:55:2c:dc:6c:06:
                    ae:bd:97:de:65:86:43:a4:84:3c:0b:79:78:10:17:
                    ea:f2:6c:63:9b:4a:e3:1a:be:2b:aa:49:71:11:22:
                    6b:c0:10:40:79:3f:07:e3:28:7b:10:0a:43:b9:ac:
                    c2:b9:b6:79:94:49:1d:fe:90:21:fd:fc:47:43:af:
                    d7:bd:0c:9d:5c:04:8d:34:ca:b7:e3:69:d9:b0:39:
                    44:bb:af:09:3d:0a:cb:0a:89:d2:3b:af:5e:69:8d:
                    34:73:92:6c:a1:1a:57:0f:b8:20:ad:58:5d:c7:c7:
                    3a:36:94:42:e7:5d:b8:1b:b5:15:62:56:05:7c:21:
                    7b:09
                Exponent: 65537 (0x10001)
        X509v3 extensions:
            X509v3 Basic Constraints: 
                CA:FALSE
            Netscape Comment: 
                OpenSSL Generated Certificate
            X509v3 Subject Key Identifier: 
                17:85:08:1C:74:5C:26:22:98:56:62:46:D6:7E:B2:3B:45:2F:33:0E
            X509v3 Authority Key Identifier: 
                keyid:69:8F:70:6F:E3:92:68:AD:AF:08:DC:BC:4A:F7:49:15:CB:B7:0F:40

    Signature Algorithm: sha256WithRSAEncryption
         11:8b:03:e9:6a:19:78:f1:98:07:10:b6:5e:c1:fa:88:8a:e7:
         81:f2:bc:60:47:79:c3:e3:c6:3b:9d:df:20:31:81:cf:1d:4e:
         13:dc:d2:50:47:ce:05:10:15:01:25:48:b7:95:4b:cc:2e:83:
         e4:a3:3c:2e:ec:f5:a4:a5:ac:ff:88:a2:3d:67:d4:26:91:62:
         ce:11:d6:25:a8:e4:c2:f8:82:75:9d:95:20:68:6a:ce:31:ff:
         be:af:ad:ff:07:80:00:12:fe:39:3f:2f:7d:02:b8:6c:a2:dd:
         39:1e:e7:82:3d:f3:19:e7:b4:be:51:57:13:e5:5c:eb:a7:c3:
         b8:35:4d:ff:f7:a6:f3:4e:83:f8:5f:be:3c:67:e2:38:75:54:
         7d:7d:ae:41:b1:b5:dd:0e:c0:65:21:9c:f1:10:d4:e5:c2:0b:
         66:62:0d:01:30:76:78:6a:a5:06:f2:d8:b4:c6:25:9c:72:44:
         ae:86:0e:03:5c:a7:50:a5:5e:79:bd:fd:f0:73:a8:d0:6c:7e:
         a6:5e:43:c8:f4:eb:22:2e:b1:26:0b:e3:fe:21:7f:d4:9e:18:
         0e:2d:25:24:0b:be:fb:f8:5f:d0:cf:71:b1:bb:03:51:b4:3b:
         27:a6:f3:ed:f8:53:22:e9:09:96:78:e9:c3:3f:69:17:6e:76:
         fa:1c:16:b8
-----BEGIN CERTIFICATE-----
MIIDZzCCAk+gAwIBAgIBFDANBgkqhkiG9w0BAQsFADA2MQswCQYDVQQGEwJDTjEL
MAkGA1UECAwCU0gxDTALBgNVBAoMBEVDTlUxCzAJBgNVBAMMAkNBMB4XDTIxMDQx
OTEwNTY0MFoXDTIyMDQxOTEwNTY0MFowOzELMAkGA1UEBhMCQ04xCzAJBgNVBAgM
AlNIMQ0wCwYDVQQKDARFQ05VMRAwDgYDVQQDDAdEQVNFMTIwMIIBIjANBgkqhkiG
9w0BAQEFAAOCAQ8AMIIBCgKCAQEAsNMIs5be6lOml5n960zUbl9/XP1jP9aPdvE1
Qk8QI5wZXFRAIYGVSux49GN/nInQSZdnWt9tpPKXUD2BxuLyFCz7fCERgPdSshWi
dHsIDEum5vBkXuLapuHyD9rAmXmUys4pnhRSy+nRZ3crTfAN7xSTYf8FCBqVTYVM
VkmCnqZ+VSzcbAauvZfeZYZDpIQ8C3l4EBfq8mxjm0rjGr4rqklxESJrwBBAeT8H
4yh7EApDuazCubZ5lEkd/pAh/fxHQ6/XvQydXASNNMq342nZsDlEu68JPQrLConS
O69eaY00c5JsoRpXD7ggrVhdx8c6NpRC5124G7UVYlYFfCF7CQIDAQABo3sweTAJ
BgNVHRMEAjAAMCwGCWCGSAGG+EIBDQQfFh1PcGVuU1NMIEdlbmVyYXRlZCBDZXJ0
aWZpY2F0ZTAdBgNVHQ4EFgQUF4UIHHRcJiKYVmJG1n6yO0UvMw4wHwYDVR0jBBgw
FoAUaY9wb+OSaK2vCNy8SvdJFcu3D0AwDQYJKoZIhvcNAQELBQADggEBABGLA+lq
GXjxmAcQtl7B+oiK54HyvGBHecPjxjud3yAxgc8dThPc0lBHzgUQFQElSLeVS8wu
g+SjPC7s9aSlrP+Ioj1n1CaRYs4R1iWo5ML4gnWdlSBoas4x/76vrf8HgAAS/jk/
L30CuGyi3Tke54I98xnntL5RVxPlXOunw7g1Tf/3pvNOg/hfvjxn4jh1VH19rkGx
td0OwGUhnPEQ1OXCC2ZiDQEwdnhqpQby2LTGJZxyRK6GDgNcp1ClXnm9/fBzqNBs
fqZeQ8j06yIusSYL4/4hf9SeGA4tJSQLvvv4X9DPcbG7A1G0Oyem8+34UyLpCZZ4
6cM/aRdudvocFrg=
-----END CERTIFICATE-----
