Certificate:
    Data:
        Version: 3 (0x2)
        Serial Number: 21 (0x15)
        Signature Algorithm: sha256WithRSAEncryption
        Issuer: C=CN, ST=SH, O=ECNU, CN=CA
        Validity
            Not Before: Apr 19 10:56:40 2021 GMT
            Not After : Apr 19 10:56:40 2022 GMT
        Subject: C=CN, ST=SH, O=ECNU, CN=DASE121
        Subject Public Key Info:
            Public Key Algorithm: rsaEncryption
                RSA Public-Key: (2048 bit)
                Modulus:
                    00:b0:d3:08:b3:96:de:ea:53:a6:97:99:fd:eb:4c:
                    d4:6e:5f:7f:5c:fd:63:3f:d6:8f:76:f1:35:42:4f:
                    10:23:9c:19:5c:54:40:21:81:95:4a:ec:78:f4:63:
                    7f:9c:89:d0:49:97:67:5a:df:6d:a4:f2:97:50:3d:
                    81:c6:e2:f2:14:2c:fb:7c:21:11:80:f7:52:b2:15:
                    a2:74:7b:08:0c:4b:a6:e6:f0:64:5e:e2:da:a6:e1:
                    f2:0f:da:c0:99:79:94:ca:ce:29:9e:14:52:cb:e9:
                    d1:67:77:2b:4d:f0:0d:ef:14:93:61:ff:05:08:1a:
                    95:4d:85:4c:56:49:82:9e:a6:7e:55:2c:dc:6c:06:
                    ae:bd:97:de:65:86:43:a4:84:3c:0b:79:78:10:17:
                    ea:f2:6c:63:9b:4a:e3:1a:be:2b:aa:49:71:11:22:
                    6b:c0:10:40:79:3f:07:e3:28:7b:10:0a:43:b9:ac:
                    c2:b9:b6:79:94:49:1d:fe:90:21:fd:fc:47:43:af:
                    d7:bd:0c:9d:5c:04:8d:34:ca:b7:e3:69:d9:b0:39:
                    44:bb:af:09:3d:0a:cb:0a:89:d2:3b:af:5e:69:8d:
                    34:73:92:6c:a1:1a:57:0f:b8:20:ad:58:5d:c7:c7:
                    3a:36:94:42:e7:5d:b8:1b:b5:15:62:56:05:7c:21:
                    7b:09
                Exponent: 65537 (0x10001)
        X509v3 extensions:
            X509v3 Basic Constraints: 
                CA:FALSE
            Netscape Comment: 
                OpenSSL Generated Certificate
            X509v3 Subject Key Identifier: 
                17:85:08:1C:74:5C:26:22:98:56:62:46:D6:7E:B2:3B:45:2F:33:0E
            X509v3 Authority Key Identifier: 
                keyid:69:8F:70:6F:E3:92:68:AD:AF:08:DC:BC:4A:F7:49:15:CB:B7:0F:40

    Signature Algorithm: sha256WithRSAEncryption
         47:b2:2c:17:b1:46:e6:4f:cc:f1:ac:3c:0e:b0:e2:95:77:6f:
         31:ff:80:c4:9c:c6:1a:c3:8a:93:bc:37:90:8b:20:57:0e:ba:
         42:b4:a1:3f:82:b8:05:01:ef:d4:66:7e:12:14:75:d4:6d:16:
         81:60:e8:d5:99:aa:87:40:4f:aa:83:17:2b:f2:ba:76:c6:a6:
         b9:7c:0c:68:42:3d:62:7d:3f:06:b0:d3:5e:cd:44:93:16:e9:
         8c:46:3a:31:52:4d:e9:20:8b:fd:2b:6d:a1:c4:75:15:18:10:
         b1:3c:9c:f3:ce:1f:9c:e4:4d:54:b2:a1:a8:5e:ad:f6:27:23:
         df:0a:8c:d6:4a:64:0e:9a:37:e9:bd:cf:e1:30:39:7a:09:53:
         49:44:a8:4e:47:93:44:ed:41:9f:d8:2d:d0:ec:a0:4d:62:18:
         c1:e4:13:aa:7a:2e:a5:dd:12:7a:d7:02:8e:b2:11:0d:37:82:
         ed:55:f3:b5:12:fc:a7:89:a2:66:63:63:c8:cc:35:fe:ff:9a:
         51:3d:1c:7d:46:48:4e:c1:01:dc:f4:91:0b:9d:04:2b:fe:32:
         26:c3:7c:81:a9:b3:2d:ee:b7:5f:9d:1f:6f:60:a9:71:ef:85:
         9b:17:dc:9d:5d:a3:fe:e1:72:c3:3f:21:04:c4:53:2d:21:eb:
         05:e1:9c:9e
-----BEGIN CERTIFICATE-----
MIIDZzCCAk+gAwIBAgIBFTANBgkqhkiG9w0BAQsFADA2MQswCQYDVQQGEwJDTjEL
MAkGA1UECAwCU0gxDTALBgNVBAoMBEVDTlUxCzAJBgNVBAMMAkNBMB4XDTIxMDQx
OTEwNTY0MFoXDTIyMDQxOTEwNTY0MFowOzELMAkGA1UEBhMCQ04xCzAJBgNVBAgM
AlNIMQ0wCwYDVQQKDARFQ05VMRAwDgYDVQQDDAdEQVNFMTIxMIIBIjANBgkqhkiG
9w0BAQEFAAOCAQ8AMIIBCgKCAQEAsNMIs5be6lOml5n960zUbl9/XP1jP9aPdvE1
Qk8QI5wZXFRAIYGVSux49GN/nInQSZdnWt9tpPKXUD2BxuLyFCz7fCERgPdSshWi
dHsIDEum5vBkXuLapuHyD9rAmXmUys4pnhRSy+nRZ3crTfAN7xSTYf8FCBqVTYVM
VkmCnqZ+VSzcbAauvZfeZYZDpIQ8C3l4EBfq8mxjm0rjGr4rqklxESJrwBBAeT8H
4yh7EApDuazCubZ5lEkd/pAh/fxHQ6/XvQydXASNNMq342nZsDlEu68JPQrLConS
O69eaY00c5JsoRpXD7ggrVhdx8c6NpRC5124G7UVYlYFfCF7CQIDAQABo3sweTAJ
BgNVHRMEAjAAMCwGCWCGSAGG+EIBDQQfFh1PcGVuU1NMIEdlbmVyYXRlZCBDZXJ0
aWZpY2F0ZTAdBgNVHQ4EFgQUF4UIHHRcJiKYVmJG1n6yO0UvMw4wHwYDVR0jBBgw
FoAUaY9wb+OSaK2vCNy8SvdJFcu3D0AwDQYJKoZIhvcNAQELBQADggEBAEeyLBex
RuZPzPGsPA6w4pV3bzH/gMScxhrDipO8N5CLIFcOukK0oT+CuAUB79RmfhIUddRt
FoFg6NWZqodAT6qDFyvyunbGprl8DGhCPWJ9Pwaw017NRJMW6YxGOjFSTekgi/0r
baHEdRUYELE8nPPOH5zkTVSyoaherfYnI98KjNZKZA6aN+m9z+EwOXoJU0lEqE5H
k0TtQZ/YLdDsoE1iGMHkE6p6LqXdEnrXAo6yEQ03gu1V87US/KeJomZjY8jMNf7/
mlE9HH1GSE7BAdz0kQudBCv+MibDfIGpsy3ut1+dH29gqXHvhZsX3J1do/7hcsM/
IQTEUy0h6wXhnJ4=
-----END CERTIFICATE-----
