Certificate:
    Data:
        Version: 3 (0x2)
        Serial Number: 22 (0x16)
        Signature Algorithm: sha256WithRSAEncryption
        Issuer: C=CN, ST=SH, O=ECNU, CN=CA
        Validity
            Not Before: Apr 19 10:56:40 2021 GMT
            Not After : Apr 19 10:56:40 2022 GMT
        Subject: C=CN, ST=SH, O=ECNU, CN=DASE122
        Subject Public Key Info:
            Public Key Algorithm: rsaEncryption
                RSA Public-Key: (2048 bit)
                Modulus:
                    00:b0:d3:08:b3:96:de:ea:53:a6:97:99:fd:eb:4c:
                    d4:6e:5f:7f:5c:fd:63:3f:d6:8f:76:f1:35:42:4f:
                    10:23:9c:19:5c:54:40:21:81:95:4a:ec:78:f4:63:
                    7f:9c:89:d0:49:97:67:5a:df:6d:a4:f2:97:50:3d:
                    81:c6:e2:f2:14:2c:fb:7c:21:11:80:f7:52:b2:15:
                    a2:74:7b:08:0c:4b:a6:e6:f0:64:5e:e2:da:a6:e1:
                    f2:0f:da:c0:99:79:94:ca:ce:29:9e:14:52:cb:e9:
                    d1:67:77:2b:4d:f0:0d:ef:14:93:61:ff:05:08:1a:
                    95:4d:85:4c:56:49:82:9e:a6:7e:55:2c:dc:6c:06:
                    ae:bd:97:de:65:86:43:a4:84:3c:0b:79:78:10:17:
                    ea:f2:6c:63:9b:4a:e3:1a:be:2b:aa:49:71:11:22:
                    6b:c0:10:40:79:3f:07:e3:28:7b:10:0a:43:b9:ac:
                    c2:b9:b6:79:94:49:1d:fe:90:21:fd:fc:47:43:af:
                    d7:bd:0c:9d:5c:04:8d:34:ca:b7:e3:69:d9:b0:39:
                    44:bb:af:09:3d:0a:cb:0a:89:d2:3b:af:5e:69:8d:
                    34:73:92:6c:a1:1a:57:0f:b8:20:ad:58:5d:c7:c7:
                    3a:36:94:42:e7:5d:b8:1b:b5:15:62:56:05:7c:21:
                    7b:09
                Exponent: 65537 (0x10001)
        X509v3 extensions:
            X509v3 Basic Constraints: 
                CA:FALSE
            Netscape Comment: 
                OpenSSL Generated Certificate
            X509v3 Subject Key Identifier: 
                17:85:08:1C:74:5C:26:22:98:56:62:46:D6:7E:B2:3B:45:2F:33:0E
            X509v3 Authority Key Identifier: 
                keyid:69:8F:70:6F:E3:92:68:AD:AF:08:DC:BC:4A:F7:49:15:CB:B7:0F:40

    Signature Algorithm: sha256WithRSAEncryption
         0e:f6:a8:d0:83:68:10:16:3a:d3:04:87:3b:e4:8c:7c:96:b9:
         9b:20:b3:4b:6e:74:92:80:a4:d5:00:d3:85:ef:57:a6:e0:09:
         8b:e9:7a:a4:08:46:d5:94:38:be:84:a7:aa:1a:51:dd:9a:90:
         67:b6:aa:d0:c5:45:90:79:a4:f3:55:32:58:e3:35:f4:4c:59:
         10:a0:19:b0:b4:ce:45:5b:19:2d:68:57:30:77:95:b8:fb:64:
         e0:92:11:df:51:91:c2:d7:27:4f:a5:c4:c9:42:fb:06:36:54:
         14:57:84:f5:27:67:46:26:ec:0d:79:fb:d9:04:85:73:74:d9:
         c7:04:19:1b:5e:68:c0:13:1f:af:b8:b6:97:dc:8a:af:2d:ea:
         28:09:a5:e5:8e:9a:38:23:ce:50:72:e5:d1:2a:7d:a5:a5:d0:
         69:fe:d4:a8:55:a8:ea:16:2a:b2:87:03:70:35:99:be:5f:81:
         a4:2b:3b:d8:67:d1:16:0b:eb:49:ec:fe:da:5a:6f:53:3d:b9:
         cb:c9:7c:d2:7b:e0:4d:06:97:24:85:ec:b4:8c:05:77:a4:b2:
         5e:e7:47:ff:a3:00:ec:8b:c3:0f:a7:e5:27:f7:6f:67:64:86:
         52:18:76:8e:c2:78:e1:4d:8f:c1:55:77:48:d9:92:60:25:10:
         3c:b1:96:ce
-----BEGIN CERTIFICATE-----
MIIDZzCCAk+gAwIBAgIBFjANBgkqhkiG9w0BAQsFADA2MQswCQYDVQQGEwJDTjEL
MAkGA1UECAwCU0gxDTALBgNVBAoMBEVDTlUxCzAJBgNVBAMMAkNBMB4XDTIxMDQx
OTEwNTY0MFoXDTIyMDQxOTEwNTY0MFowOzELMAkGA1UEBhMCQ04xCzAJBgNVBAgM
AlNIMQ0wCwYDVQQKDARFQ05VMRAwDgYDVQQDDAdEQVNFMTIyMIIBIjANBgkqhkiG
9w0BAQEFAAOCAQ8AMIIBCgKCAQEAsNMIs5be6lOml5n960zUbl9/XP1jP9aPdvE1
Qk8QI5wZXFRAIYGVSux49GN/nInQSZdnWt9tpPKXUD2BxuLyFCz7fCERgPdSshWi
dHsIDEum5vBkXuLapuHyD9rAmXmUys4pnhRSy+nRZ3crTfAN7xSTYf8FCBqVTYVM
VkmCnqZ+VSzcbAauvZfeZYZDpIQ8C3l4EBfq8mxjm0rjGr4rqklxESJrwBBAeT8H
4yh7EApDuazCubZ5lEkd/pAh/fxHQ6/XvQydXASNNMq342nZsDlEu68JPQrLConS
O69eaY00c5JsoRpXD7ggrVhdx8c6NpRC5124G7UVYlYFfCF7CQIDAQABo3sweTAJ
BgNVHRMEAjAAMCwGCWCGSAGG+EIBDQQfFh1PcGVuU1NMIEdlbmVyYXRlZCBDZXJ0
aWZpY2F0ZTAdBgNVHQ4EFgQUF4UIHHRcJiKYVmJG1n6yO0UvMw4wHwYDVR0jBBgw
FoAUaY9wb+OSaK2vCNy8SvdJFcu3D0AwDQYJKoZIhvcNAQELBQADggEBAA72qNCD
aBAWOtMEhzvkjHyWuZsgs0tudJKApNUA04XvV6bgCYvpeqQIRtWUOL6Ep6oaUd2a
kGe2qtDFRZB5pPNVMljjNfRMWRCgGbC0zkVbGS1oVzB3lbj7ZOCSEd9RkcLXJ0+l
xMlC+wY2VBRXhPUnZ0Ym7A15+9kEhXN02ccEGRteaMATH6+4tpfciq8t6igJpeWO
mjgjzlBy5dEqfaWl0Gn+1KhVqOoWKrKHA3A1mb5fgaQrO9hn0RYL60ns/tpab1M9
ucvJfNJ74E0GlySF7LSMBXeksl7nR/+jAOyLww+n5Sf3b2dkhlIYdo7CeOFNj8FV
d0jZkmAlEDyxls4=
-----END CERTIFICATE-----
