Certificate:
    Data:
        Version: 3 (0x2)
        Serial Number: 23 (0x17)
        Signature Algorithm: sha256WithRSAEncryption
        Issuer: C=CN, ST=SH, O=ECNU, CN=CA
        Validity
            Not Before: Apr 19 10:56:40 2021 GMT
            Not After : Apr 19 10:56:40 2022 GMT
        Subject: C=CN, ST=SH, O=ECNU, CN=DASE123
        Subject Public Key Info:
            Public Key Algorithm: rsaEncryption
                RSA Public-Key: (2048 bit)
                Modulus:
                    00:b0:d3:08:b3:96:de:ea:53:a6:97:99:fd:eb:4c:
                    d4:6e:5f:7f:5c:fd:63:3f:d6:8f:76:f1:35:42:4f:
                    10:23:9c:19:5c:54:40:21:81:95:4a:ec:78:f4:63:
                    7f:9c:89:d0:49:97:67:5a:df:6d:a4:f2:97:50:3d:
                    81:c6:e2:f2:14:2c:fb:7c:21:11:80:f7:52:b2:15:
                    a2:74:7b:08:0c:4b:a6:e6:f0:64:5e:e2:da:a6:e1:
                    f2:0f:da:c0:99:79:94:ca:ce:29:9e:14:52:cb:e9:
                    d1:67:77:2b:4d:f0:0d:ef:14:93:61:ff:05:08:1a:
                    95:4d:85:4c:56:49:82:9e:a6:7e:55:2c:dc:6c:06:
                    ae:bd:97:de:65:86:43:a4:84:3c:0b:79:78:10:17:
                    ea:f2:6c:63:9b:4a:e3:1a:be:2b:aa:49:71:11:22:
                    6b:c0:10:40:79:3f:07:e3:28:7b:10:0a:43:b9:ac:
                    c2:b9:b6:79:94:49:1d:fe:90:21:fd:fc:47:43:af:
                    d7:bd:0c:9d:5c:04:8d:34:ca:b7:e3:69:d9:b0:39:
                    44:bb:af:09:3d:0a:cb:0a:89:d2:3b:af:5e:69:8d:
                    34:73:92:6c:a1:1a:57:0f:b8:20:ad:58:5d:c7:c7:
                    3a:36:94:42:e7:5d:b8:1b:b5:15:62:56:05:7c:21:
                    7b:09
                Exponent: 65537 (0x10001)
        X509v3 extensions:
            X509v3 Basic Constraints: 
                CA:FALSE
            Netscape Comment: 
                OpenSSL Generated Certificate
            X509v3 Subject Key Identifier: 
                17:85:08:1C:74:5C:26:22:98:56:62:46:D6:7E:B2:3B:45:2F:33:0E
            X509v3 Authority Key Identifier: 
                keyid:69:8F:70:6F:E3:92:68:AD:AF:08:DC:BC:4A:F7:49:15:CB:B7:0F:40

    Signature Algorithm: sha256WithRSAEncryption
         72:0d:5f:87:9a:eb:c0:65:20:42:5f:af:b4:e9:66:6c:04:14:
         4f:38:ba:fa:a5:e6:e0:9a:58:8e:e3:a8:d1:a6:e4:94:a3:ac:
         73:71:eb:62:ea:2e:7d:87:79:67:c0:b3:f9:5b:f6:74:4b:a3:
         30:f0:bf:34:87:7f:0c:5d:21:c8:a5:74:61:41:b1:db:34:16:
         d8:c5:bd:d3:db:ef:99:7f:79:36:80:6b:96:37:e7:64:8b:81:
         b3:87:3d:f3:f3:02:78:ac:ff:2a:b3:e0:70:fd:6e:a3:23:aa:
         35:77:31:60:b1:24:34:8c:8e:c8:cd:46:b3:6c:f9:b5:39:00:
         b7:5b:4d:dd:5a:2c:32:b9:58:07:b7:2f:87:f8:48:75:05:13:
         04:71:cc:4e:26:49:95:05:d8:81:e2:e2:0f:ef:eb:fe:e9:ae:
         27:57:c4:24:a4:81:55:2c:7e:02:0e:7e:59:a9:df:67:c4:15:
         bc:9b:27:4f:43:32:ea:07:34:73:dd:b8:fe:f5:a8:74:08:42:
         39:54:8a:75:30:bb:72:8a:5b:c0:f3:8d:f4:c6:55:cf:70:6c:
         a9:7f:83:e4:4f:24:36:3a:71:c9:31:bf:ea:8b:cb:6c:74:68:
         a3:ac:27:82:fb:9f:c6:e7:d2:5f:63:fd:b0:2e:c6:16:e4:1f:
         0f:a6:18:16
-----BEGIN CERTIFICATE-----
MIIDZzCCAk+gAwIBAgIBFzANBgkqhkiG9w0BAQsFADA2MQswCQYDVQQGEwJDTjEL
MAkGA1UECAwCU0gxDTALBgNVBAoMBEVDTlUxCzAJBgNVBAMMAkNBMB4XDTIxMDQx
OTEwNTY0MFoXDTIyMDQxOTEwNTY0MFowOzELMAkGA1UEBhMCQ04xCzAJBgNVBAgM
AlNIMQ0wCwYDVQQKDARFQ05VMRAwDgYDVQQDDAdEQVNFMTIzMIIBIjANBgkqhkiG
9w0BAQEFAAOCAQ8AMIIBCgKCAQEAsNMIs5be6lOml5n960zUbl9/XP1jP9aPdvE1
Qk8QI5wZXFRAIYGVSux49GN/nInQSZdnWt9tpPKXUD2BxuLyFCz7fCERgPdSshWi
dHsIDEum5vBkXuLapuHyD9rAmXmUys4pnhRSy+nRZ3crTfAN7xSTYf8FCBqVTYVM
VkmCnqZ+VSzcbAauvZfeZYZDpIQ8C3l4EBfq8mxjm0rjGr4rqklxESJrwBBAeT8H
4yh7EApDuazCubZ5lEkd/pAh/fxHQ6/XvQydXASNNMq342nZsDlEu68JPQrLConS
O69eaY00c5JsoRpXD7ggrVhdx8c6NpRC5124G7UVYlYFfCF7CQIDAQABo3sweTAJ
BgNVHRMEAjAAMCwGCWCGSAGG+EIBDQQfFh1PcGVuU1NMIEdlbmVyYXRlZCBDZXJ0
aWZpY2F0ZTAdBgNVHQ4EFgQUF4UIHHRcJiKYVmJG1n6yO0UvMw4wHwYDVR0jBBgw
FoAUaY9wb+OSaK2vCNy8SvdJFcu3D0AwDQYJKoZIhvcNAQELBQADggEBAHINX4ea
68BlIEJfr7TpZmwEFE84uvql5uCaWI7jqNGm5JSjrHNx62LqLn2HeWfAs/lb9nRL
ozDwvzSHfwxdIcildGFBsds0FtjFvdPb75l/eTaAa5Y352SLgbOHPfPzAnis/yqz
4HD9bqMjqjV3MWCxJDSMjsjNRrNs+bU5ALdbTd1aLDK5WAe3L4f4SHUFEwRxzE4m
SZUF2IHi4g/v6/7pridXxCSkgVUsfgIOflmp32fEFbybJ09DMuoHNHPduP71qHQI
QjlUinUwu3KKW8DzjfTGVc9wbKl/g+RPJDY6cckxv+qLy2x0aKOsJ4L7n8bn0l9j
/bAuxhbkHw+mGBY=
-----END CERTIFICATE-----
