Certificate:
    Data:
        Version: 3 (0x2)
        Serial Number: 24 (0x18)
        Signature Algorithm: sha256WithRSAEncryption
        Issuer: C=CN, ST=SH, O=ECNU, CN=CA
        Validity
            Not Before: May 10 05:22:06 2021 GMT
            Not After : May 10 05:22:06 2022 GMT
        Subject: C=CN, ST=SH, O=ECNU, CN=DASE18
        Subject Public Key Info:
            Public Key Algorithm: rsaEncryption
                RSA Public-Key: (2048 bit)
                Modulus:
                    00:f9:8c:00:a4:96:8f:64:7f:33:99:ab:1c:e2:d4:
                    48:5b:9e:f6:91:a4:bc:62:62:d2:a9:88:b5:c9:42:
                    ac:ed:3d:e3:d8:20:61:60:63:0e:41:07:72:99:76:
                    2c:9e:7a:96:6f:ea:ec:31:f1:a5:c1:a0:fa:0a:ed:
                    fb:05:d9:e3:23:3e:a1:17:38:c0:80:1b:ab:a9:85:
                    dd:1c:47:d3:2c:93:84:f5:45:41:38:86:dd:d3:6f:
                    35:d2:d5:df:65:c1:70:7a:85:ae:47:97:49:75:c0:
                    d9:5c:24:5c:d8:bd:58:3b:31:cc:04:d9:ef:87:7b:
                    9e:4d:6c:00:d4:ff:b6:12:ca:14:ce:0d:c0:29:90:
                    ee:af:54:84:97:c0:dc:e1:31:de:ee:d8:e4:d7:0e:
                    cd:a6:f1:53:3d:34:4d:7e:36:ac:7d:26:24:ab:b1:
                    e1:81:64:20:65:6c:03:f4:29:86:2f:de:79:82:68:
                    45:4e:68:bb:17:8f:c5:72:d7:14:03:f7:ac:7d:b4:
                    ea:82:20:a4:16:00:d9:25:89:f3:72:c9:ba:c1:c0:
                    77:e6:f8:b5:a8:e7:05:5f:23:5c:6e:bc:90:bf:8b:
                    04:8f:ef:ce:9e:ef:da:74:3a:4f:9f:f6:a4:c3:39:
                    a1:47:31:41:88:3b:31:3f:98:3a:5c:05:4b:d4:44:
                    0e:83
                Exponent: 65537 (0x10001)
        X509v3 extensions:
            X509v3 Basic Constraints: 
                CA:FALSE
            Netscape Comment: 
                OpenSSL Generated Certificate
            X509v3 Subject Key Identifier: 
                95:EA:6D:BB:C1:FA:45:9F:86:DF:90:87:5D:2D:0A:79:A8:09:9E:E3
            X509v3 Authority Key Identifier: 
                keyid:69:8F:70:6F:E3:92:68:AD:AF:08:DC:BC:4A:F7:49:15:CB:B7:0F:40

    Signature Algorithm: sha256WithRSAEncryption
         16:56:ba:98:11:6d:f1:1a:4d:0f:1d:2e:91:72:58:75:f1:bc:
         8a:57:d0:f7:0d:1e:b5:8f:7e:e0:81:54:32:35:e9:1e:86:3a:
         99:23:be:80:2b:da:4d:a5:bd:49:48:b1:98:30:c5:0c:52:9b:
         c1:b0:b1:da:65:16:cd:c6:29:07:eb:16:7d:76:e0:d6:c2:a5:
         8c:6d:ef:ee:98:07:0b:c4:60:40:4d:a2:4a:9e:bb:5a:26:5a:
         94:60:fb:62:f6:fd:1a:d8:d5:27:bf:98:a8:c2:8a:e9:5b:67:
         a5:c4:91:13:c3:5b:f4:67:d7:4a:aa:bf:0e:73:7b:82:52:6f:
         15:8e:72:f9:e6:4c:7a:b3:e8:5d:5b:95:8c:34:07:96:e7:f5:
         f8:49:e6:51:25:eb:3c:15:9c:73:09:ac:9a:ee:e6:92:9b:3b:
         e7:89:5f:7c:84:4e:f3:6f:6e:0f:cf:2a:87:21:ae:4e:7e:26:
         54:e8:37:db:5f:c5:94:75:6f:3c:f0:da:d6:a9:88:60:7d:e0:
         48:40:3e:6c:48:71:b1:70:11:67:21:8b:e4:d7:6e:27:e4:8d:
         ee:fa:28:a5:80:01:88:5b:4d:b6:e7:8b:36:a1:98:7d:b9:62:
         8e:ec:15:6f:97:b3:a6:04:2d:c3:34:52:91:bc:97:a2:4f:c3:
         ed:2f:e0:e1
-----BEGIN CERTIFICATE-----
MIIDZjCCAk6gAwIBAgIBGDANBgkqhkiG9w0BAQsFADA2MQswCQYDVQQGEwJDTjEL
MAkGA1UECAwCU0gxDTALBgNVBAoMBEVDTlUxCzAJBgNVBAMMAkNBMB4XDTIxMDUx
MDA1MjIwNloXDTIyMDUxMDA1MjIwNlowOjELMAkGA1UEBhMCQ04xCzAJBgNVBAgM
AlNIMQ0wCwYDVQQKDARFQ05VMQ8wDQYDVQQDDAZEQVNFMTgwggEiMA0GCSqGSIb3
DQEBAQUAA4IBDwAwggEKAoIBAQD5jACklo9kfzOZqxzi1EhbnvaRpLxiYtKpiLXJ
QqztPePYIGFgYw5BB3KZdiyeepZv6uwx8aXBoPoK7fsF2eMjPqEXOMCAG6uphd0c
R9Msk4T1RUE4ht3TbzXS1d9lwXB6ha5Hl0l1wNlcJFzYvVg7McwE2e+He55NbADU
/7YSyhTODcApkO6vVISXwNzhMd7u2OTXDs2m8VM9NE1+Nqx9JiSrseGBZCBlbAP0
KYYv3nmCaEVOaLsXj8Vy1xQD96x9tOqCIKQWANklifNyybrBwHfm+LWo5wVfI1xu
vJC/iwSP786e79p0Ok+f9qTDOaFHMUGIOzE/mDpcBUvURA6DAgMBAAGjezB5MAkG
A1UdEwQCMAAwLAYJYIZIAYb4QgENBB8WHU9wZW5TU0wgR2VuZXJhdGVkIENlcnRp
ZmljYXRlMB0GA1UdDgQWBBSV6m27wfpFn4bfkIddLQp5qAme4zAfBgNVHSMEGDAW
gBRpj3Bv45Jora8I3LxK90kVy7cPQDANBgkqhkiG9w0BAQsFAAOCAQEAFla6mBFt
8RpNDx0ukXJYdfG8ilfQ9w0etY9+4IFUMjXpHoY6mSO+gCvaTaW9SUixmDDFDFKb
wbCx2mUWzcYpB+sWfXbg1sKljG3v7pgHC8RgQE2iSp67WiZalGD7Yvb9GtjVJ7+Y
qMKK6VtnpcSRE8Nb9GfXSqq/DnN7glJvFY5y+eZMerPoXVuVjDQHluf1+EnmUSXr
PBWccwmsmu7mkps754lffIRO829uD88qhyGuTn4mVOg321/FlHVvPPDa1qmIYH3g
SEA+bEhxsXARZyGL5NduJ+SN7voopYABiFtNtueLNqGYfblijuwVb5ezpgQtwzRS
kbyXok/D7S/g4Q==
-----END CERTIFICATE-----
