Certificate:
    Data:
        Version: 3 (0x2)
        Serial Number: 25 (0x19)
        Signature Algorithm: sha256WithRSAEncryption
        Issuer: C=CN, ST=SH, O=ECNU, CN=CA
        Validity
            Not Before: May 11 13:35:11 2021 GMT
            Not After : May 11 13:35:11 2022 GMT
        Subject: C=CN, ST=SH, O=ECNU, CN=DASE20
        Subject Public Key Info:
            Public Key Algorithm: rsaEncryption
                RSA Public-Key: (2048 bit)
                Modulus:
                    00:bf:84:17:0c:20:71:2d:e6:e8:fc:46:2f:0c:0a:
                    b0:04:8a:3c:09:c6:80:62:82:8a:8b:ee:87:f0:6c:
                    b1:ef:64:8e:ab:2a:03:a7:6b:d3:00:a7:a3:31:42:
                    e7:fe:d4:71:51:97:51:5d:92:1b:48:f1:f2:4e:24:
                    74:4c:0d:e6:56:f9:69:b5:c0:e4:0e:8c:3e:b4:6d:
                    47:f5:58:53:7f:30:4d:64:6c:ee:8b:92:89:38:40:
                    1a:85:d6:ea:f3:ce:45:12:a9:2b:63:6d:19:d7:34:
                    cb:45:7a:e7:6a:1f:cd:f8:69:3a:81:4e:12:2d:29:
                    b5:08:d0:f1:19:ab:89:ce:6e:a5:5f:2a:41:eb:58:
                    1c:7e:c1:1d:8f:1d:95:a7:48:a5:8b:ec:c4:6c:38:
                    68:4f:2a:20:64:df:7e:12:49:73:15:c7:c8:85:9d:
                    5d:77:1f:1d:19:f4:7d:d6:b0:18:b8:11:94:54:db:
                    a2:15:5f:43:6b:26:0f:ab:0d:94:4c:80:e4:3d:3e:
                    f4:0d:75:f7:2f:f6:b0:62:c7:ae:5b:d1:69:81:48:
                    61:4c:70:28:8b:bf:38:9c:42:9b:f6:96:ff:22:84:
                    13:ef:2e:04:49:04:50:f5:2c:23:fc:f2:5b:e0:80:
                    46:5c:3a:10:80:19:2b:dc:0a:e6:c6:bb:f4:26:f6:
                    0f:01
                Exponent: 65537 (0x10001)
        X509v3 extensions:
            X509v3 Basic Constraints: 
                CA:FALSE
            Netscape Comment: 
                OpenSSL Generated Certificate
            X509v3 Subject Key Identifier: 
                0C:F6:7B:96:51:F4:62:0C:17:45:74:64:AE:CA:A1:2C:64:12:94:49
            X509v3 Authority Key Identifier: 
                keyid:69:8F:70:6F:E3:92:68:AD:AF:08:DC:BC:4A:F7:49:15:CB:B7:0F:40

    Signature Algorithm: sha256WithRSAEncryption
         67:a5:c7:59:36:67:24:bd:f5:9a:d0:79:f5:c1:05:ff:f9:04:
         ea:87:b9:9d:0c:0a:7c:55:70:b4:84:ea:3b:60:9a:e5:91:46:
         fe:a9:ce:ef:13:65:19:5f:df:ac:9b:f1:37:77:34:63:60:53:
         19:22:1e:de:06:76:a2:3b:67:82:2d:7b:4c:1e:81:62:0a:d9:
         01:22:7d:83:c3:fa:c7:3c:e2:68:d0:f9:45:91:8a:db:cf:ac:
         83:7a:9d:15:5b:6e:eb:61:d6:88:e5:24:6f:56:fc:32:d9:d0:
         88:28:d7:8b:06:35:0d:fd:c9:ad:24:10:e0:0b:be:5b:2d:a1:
         4f:9b:cd:42:0a:21:be:2f:57:0c:b3:6f:eb:ce:6d:0b:2d:46:
         b6:2e:18:41:ec:b8:67:48:b0:4d:97:02:69:f7:45:1c:97:f2:
         6e:51:e1:0e:08:3c:1d:13:98:a0:d9:1d:aa:06:01:57:77:68:
         66:c4:26:db:09:9a:c7:76:e5:9e:1d:aa:7a:36:6a:16:31:3c:
         ce:81:c4:b6:9e:08:5d:49:5b:5d:db:e2:02:4e:ef:af:d9:bd:
         cd:a7:5f:5d:f4:88:a6:36:05:07:da:6f:5a:35:d8:66:c5:7b:
         b4:90:39:16:fb:9b:fe:f2:ab:36:59:c5:8a:fa:47:50:c1:b4:
         aa:bf:76:0b
-----BEGIN CERTIFICATE-----
MIIDZjCCAk6gAwIBAgIBGTANBgkqhkiG9w0BAQsFADA2MQswCQYDVQQGEwJDTjEL
MAkGA1UECAwCU0gxDTALBgNVBAoMBEVDTlUxCzAJBgNVBAMMAkNBMB4XDTIxMDUx
MTEzMzUxMVoXDTIyMDUxMTEzMzUxMVowOjELMAkGA1UEBhMCQ04xCzAJBgNVBAgM
AlNIMQ0wCwYDVQQKDARFQ05VMQ8wDQYDVQQDDAZEQVNFMjAwggEiMA0GCSqGSIb3
DQEBAQUAA4IBDwAwggEKAoIBAQC/hBcMIHEt5uj8Ri8MCrAEijwJxoBigoqL7ofw
bLHvZI6rKgOna9MAp6MxQuf+1HFRl1FdkhtI8fJOJHRMDeZW+Wm1wOQOjD60bUf1
WFN/ME1kbO6Lkok4QBqF1urzzkUSqStjbRnXNMtFeudqH834aTqBThItKbUI0PEZ
q4nObqVfKkHrWBx+wR2PHZWnSKWL7MRsOGhPKiBk334SSXMVx8iFnV13Hx0Z9H3W
sBi4EZRU26IVX0NrJg+rDZRMgOQ9PvQNdfcv9rBix65b0WmBSGFMcCiLvzicQpv2
lv8ihBPvLgRJBFD1LCP88lvggEZcOhCAGSvcCubGu/Qm9g8BAgMBAAGjezB5MAkG
A1UdEwQCMAAwLAYJYIZIAYb4QgENBB8WHU9wZW5TU0wgR2VuZXJhdGVkIENlcnRp
ZmljYXRlMB0GA1UdDgQWBBQM9nuWUfRiDBdFdGSuyqEsZBKUSTAfBgNVHSMEGDAW
gBRpj3Bv45Jora8I3LxK90kVy7cPQDANBgkqhkiG9w0BAQsFAAOCAQEAZ6XHWTZn
JL31mtB59cEF//kE6oe5nQwKfFVwtITqO2Ca5ZFG/qnO7xNlGV/frJvxN3c0Y2BT
GSIe3gZ2ojtngi17TB6BYgrZASJ9g8P6xzziaND5RZGK28+sg3qdFVtu62HWiOUk
b1b8MtnQiCjXiwY1Df3JrSQQ4Au+Wy2hT5vNQgohvi9XDLNv685tCy1Gti4YQey4
Z0iwTZcCafdFHJfyblHhDgg8HROYoNkdqgYBV3doZsQm2wmax3blnh2qejZqFjE8
zoHEtp4IXUlbXdviAk7vr9m9zadfXfSIpjYFB9pvWjXYZsV7tJA5Fvub/vKrNlnF
ivpHUMG0qr92Cw==
-----END CERTIFICATE-----
