Certificate:
    Data:
        Version: 3 (0x2)
        Serial Number: 26 (0x1a)
        Signature Algorithm: ecdsa-with-SHA256
        Issuer: C=CN, ST=SH, O=ECNU, CN=CA
        Validity
            Not Before: May 11 13:39:38 2021 GMT
            Not After : May 11 13:39:38 2022 GMT
        Subject: C=CN, ST=SH, O=ECNU, CN=DASE21
        Subject Public Key Info:
            Public Key Algorithm: id-ecPublicKey
                Public-Key: (256 bit)
                pub:
                    04:f1:5a:71:eb:78:33:b9:e2:02:aa:b9:e0:1f:5d:
                    11:15:85:cc:a7:b1:40:ff:de:af:b4:86:3b:25:2f:
                    7a:c9:6b:66:19:6f:ea:d9:0a:b6:4b:44:14:d4:5c:
                    f1:4f:a1:c6:0a:01:e6:26:52:35:ec:33:30:a3:ff:
                    12:9c:c0:ed:0c
                ASN1 OID: SM2
        X509v3 extensions:
            X509v3 Basic Constraints: 
                CA:FALSE
            Netscape Comment: 
                OpenSSL Generated Certificate
            X509v3 Subject Key Identifier: 
                85:41:E1:2C:13:E5:0A:B3:17:29:7A:96:6A:9C:64:74:06:01:21:0D
            X509v3 Authority Key Identifier: 
                keyid:90:56:10:E7:CA:B1:01:C3:7C:00:E5:6B:A1:F2:63:45:BF:43:C0:DE

    Signature Algorithm: ecdsa-with-SHA256
         30:44:02:20:44:6b:ef:f2:0a:cf:36:29:7a:2c:a8:8a:d4:b8:
         db:5e:3f:03:d2:e2:ee:a3:79:db:76:ae:3f:3d:91:60:89:39:
         02:20:5b:fb:88:61:8c:7d:6e:13:e6:e1:88:cb:4a:7c:70:e3:
         5a:ab:d6:08:41:91:03:f2:f3:b2:d1:53:89:75:ce:a6
-----BEGIN CERTIFICATE-----
MIIB2TCCAYCgAwIBAgIBGjAKBggqhkjOPQQDAjA2MQswCQYDVQQGEwJDTjELMAkG
A1UECAwCU0gxDTALBgNVBAoMBEVDTlUxCzAJBgNVBAMMAkNBMB4XDTIxMDUxMTEz
MzkzOFoXDTIyMDUxMTEzMzkzOFowOjELMAkGA1UEBhMCQ04xCzAJBgNVBAgMAlNI
MQ0wCwYDVQQKDARFQ05VMQ8wDQYDVQQDDAZEQVNFMjEwWTATBgcqhkjOPQIBBggq
gRzPVQGCLQNCAATxWnHreDO54gKqueAfXREVhcynsUD/3q+0hjslL3rJa2YZb+rZ
CrZLRBTUXPFPocYKAeYmUjXsMzCj/xKcwO0Mo3sweTAJBgNVHRMEAjAAMCwGCWCG
SAGG+EIBDQQfFh1PcGVuU1NMIEdlbmVyYXRlZCBDZXJ0aWZpY2F0ZTAdBgNVHQ4E
FgQUhUHhLBPlCrMXKXqWapxkdAYBIQ0wHwYDVR0jBBgwFoAUkFYQ58qxAcN8AOVr
ofJjRb9DwN4wCgYIKoZIzj0EAwIDRwAwRAIgRGvv8grPNil6LKiK1LjbXj8D0uLu
o3nbdq4/PZFgiTkCIFv7iGGMfW4T5uGIy0p8cONaq9YIQZED8vOy0VOJdc6m
-----END CERTIFICATE-----
