Certificate:
    Data:
        Version: 3 (0x2)
        Serial Number: 27 (0x1b)
        Signature Algorithm: ecdsa-with-SHA256
        Issuer: C=CN, ST=SH, O=ECNU, CN=CA
        Validity
            Not Before: May 11 13:40:50 2021 GMT
            Not After : May 11 13:40:50 2022 GMT
        Subject: C=CN, ST=SH, O=ECNU, CN=DASE22
        Subject Public Key Info:
            Public Key Algorithm: id-ecPublicKey
                Public-Key: (256 bit)
                pub:
                    04:6f:33:81:57:d0:9f:37:a5:26:b7:06:9c:d7:08:
                    78:a4:f2:40:a1:69:10:45:7f:88:f0:ce:8b:5e:67:
                    88:55:93:41:15:3e:89:d9:35:7b:41:13:3d:1b:33:
                    1c:84:12:0f:72:bd:8a:6b:3b:cc:78:f4:fd:0d:d6:
                    1d:62:1a:a0:12
                ASN1 OID: SM2
        X509v3 extensions:
            X509v3 Basic Constraints: 
                CA:FALSE
            Netscape Comment: 
                OpenSSL Generated Certificate
            X509v3 Subject Key Identifier: 
                EE:3B:64:56:6C:F2:5C:55:EA:4D:C5:84:E7:A2:13:C7:19:F9:7B:C3
            X509v3 Authority Key Identifier: 
                keyid:73:D6:3B:14:28:83:8B:38:53:F3:FD:08:5A:A0:AE:DC:09:F1:7C:5C

    Signature Algorithm: ecdsa-with-SHA256
         30:46:02:21:00:db:9b:1c:23:6c:2d:9e:c3:49:d2:ab:c2:53:
         8a:a6:72:03:b8:6c:dc:3b:07:68:8b:0f:0f:e8:86:db:4c:89:
         16:02:21:00:cb:23:ef:8c:81:e2:64:e3:df:6d:3b:4a:70:a4:
         f0:2b:67:a3:dc:29:9f:57:f7:ed:67:40:7c:27:02:23:5f:d4
-----BEGIN CERTIFICATE-----
MIIB2zCCAYCgAwIBAgIBGzAKBggqhkjOPQQDAjA2MQswCQYDVQQGEwJDTjELMAkG
A1UECAwCU0gxDTALBgNVBAoMBEVDTlUxCzAJBgNVBAMMAkNBMB4XDTIxMDUxMTEz
NDA1MFoXDTIyMDUxMTEzNDA1MFowOjELMAkGA1UEBhMCQ04xCzAJBgNVBAgMAlNI
MQ0wCwYDVQQKDARFQ05VMQ8wDQYDVQQDDAZEQVNFMjIwWTATBgcqhkjOPQIBBggq
gRzPVQGCLQNCAARvM4FX0J83pSa3BpzXCHik8kChaRBFf4jwzoteZ4hVk0EVPonZ
NXtBEz0bMxyEEg9yvYprO8x49P0N1h1iGqASo3sweTAJBgNVHRMEAjAAMCwGCWCG
SAGG+EIBDQQfFh1PcGVuU1NMIEdlbmVyYXRlZCBDZXJ0aWZpY2F0ZTAdBgNVHQ4E
FgQU7jtkVmzyXFXqTcWE56ITxxn5e8MwHwYDVR0jBBgwFoAUc9Y7FCiDizhT8/0I
WqCu3AnxfFwwCgYIKoZIzj0EAwIDSQAwRgIhANubHCNsLZ7DSdKrwlOKpnIDuGzc
Owdoiw8P6IbbTIkWAiEAyyPvjIHiZOPfbTtKcKTwK2ej3CmfV/ftZ0B8JwIjX9Q=
-----END CERTIFICATE-----
